
miniproject1.elf:     file format elf32-littlenios2
miniproject1.elf
architecture: nios2:r1, flags 0x00000112:
EXEC_P, HAS_SYMS, D_PAGED
start address 0x04040230

Program Header:
    LOAD off    0x00001000 vaddr 0x04040000 paddr 0x04040000 align 2**12
         filesz 0x00000020 memsz 0x00000020 flags r-x
    LOAD off    0x00001020 vaddr 0x04040020 paddr 0x04040020 align 2**12
         filesz 0x000109c4 memsz 0x000109c4 flags r-x
    LOAD off    0x00012000 vaddr 0x00000000 paddr 0x040509e4 align 2**12
         filesz 0x00001ea4 memsz 0x0000203c flags rw-

Sections:
Idx Name          Size      VMA       LMA       File off  Algn
  0 .entry        00000020  04040000  04040000  00001000  2**5
                  CONTENTS, ALLOC, LOAD, READONLY, CODE
  1 .exceptions   00000210  04040020  04040020  00001020  2**2
                  CONTENTS, ALLOC, LOAD, READONLY, CODE
  2 .text         000107b4  04040230  04040230  00001230  2**2
                  CONTENTS, ALLOC, LOAD, READONLY, CODE
  3 .rodata       00000384  00000000  040509e4  00012000  2**2
                  CONTENTS, ALLOC, LOAD, READONLY, DATA
  4 .rwdata       00001b20  00000384  04050d68  00012384  2**2
                  CONTENTS, ALLOC, LOAD, DATA, SMALL_DATA
  5 .bss          00000198  00001ea4  04052888  00013ea4  2**2
                  ALLOC, SMALL_DATA
  6 .DRAM         00000000  0000203c  0000203c  00013ea4  2**0
                  CONTENTS
  7 .IMEM         00000000  04052888  04052888  00013ea4  2**0
                  CONTENTS
  8 .comment      00000023  00000000  00000000  00013ea4  2**0
                  CONTENTS, READONLY
  9 .debug_aranges 00000f68  00000000  00000000  00013ec8  2**3
                  CONTENTS, READONLY, DEBUGGING
 10 .debug_info   00023905  00000000  00000000  00014e30  2**0
                  CONTENTS, READONLY, DEBUGGING
 11 .debug_abbrev 00009551  00000000  00000000  00038735  2**0
                  CONTENTS, READONLY, DEBUGGING
 12 .debug_line   0000ba1b  00000000  00000000  00041c86  2**0
                  CONTENTS, READONLY, DEBUGGING
 13 .debug_frame  000022c8  00000000  00000000  0004d6a4  2**2
                  CONTENTS, READONLY, DEBUGGING
 14 .debug_str    00003a82  00000000  00000000  0004f96c  2**0
                  CONTENTS, READONLY, DEBUGGING
 15 .debug_loc    00018728  00000000  00000000  000533ee  2**0
                  CONTENTS, READONLY, DEBUGGING
 16 .debug_alt_sim_info 00000010  00000000  00000000  0006bb18  2**2
                  CONTENTS, READONLY, DEBUGGING
 17 .debug_ranges 00001b38  00000000  00000000  0006bb28  2**3
                  CONTENTS, READONLY, DEBUGGING
 18 .thread_model 00000003  00000000  00000000  00070aa2  2**0
                  CONTENTS, READONLY
 19 .cpu          0000000c  00000000  00000000  00070aa5  2**0
                  CONTENTS, READONLY
 20 .qsys         00000001  00000000  00000000  00070ab1  2**0
                  CONTENTS, READONLY
 21 .simulation_enabled 00000001  00000000  00000000  00070ab2  2**0
                  CONTENTS, READONLY
 22 .sysid_hash   00000004  00000000  00000000  00070ab3  2**0
                  CONTENTS, READONLY
 23 .sysid_base   00000004  00000000  00000000  00070ab7  2**0
                  CONTENTS, READONLY
 24 .sysid_time   00000004  00000000  00000000  00070abb  2**0
                  CONTENTS, READONLY
 25 .stderr_dev   0000000b  00000000  00000000  00070abf  2**0
                  CONTENTS, READONLY
 26 .stdin_dev    0000000b  00000000  00000000  00070aca  2**0
                  CONTENTS, READONLY
 27 .stdout_dev   0000000b  00000000  00000000  00070ad5  2**0
                  CONTENTS, READONLY
 28 .sopc_system_name 0000000c  00000000  00000000  00070ae0  2**0
                  CONTENTS, READONLY
 29 .quartus_project_dir 00000013  00000000  00000000  00070aec  2**0
                  CONTENTS, READONLY
 30 .jdi          0000532e  00000000  00000000  00070aff  2**0
                  CONTENTS, READONLY
 31 .sopcinfo     0005c022  00000000  00000000  00075e2d  2**0
                  CONTENTS, READONLY
SYMBOL TABLE:
04040000 l    d  .entry	00000000 .entry
04040020 l    d  .exceptions	00000000 .exceptions
04040230 l    d  .text	00000000 .text
00000000 l    d  .rodata	00000000 .rodata
00000384 l    d  .rwdata	00000000 .rwdata
00001ea4 l    d  .bss	00000000 .bss
0000203c l    d  .DRAM	00000000 .DRAM
04052888 l    d  .IMEM	00000000 .IMEM
00000000 l    d  .comment	00000000 .comment
00000000 l    d  .debug_aranges	00000000 .debug_aranges
00000000 l    d  .debug_info	00000000 .debug_info
00000000 l    d  .debug_abbrev	00000000 .debug_abbrev
00000000 l    d  .debug_line	00000000 .debug_line
00000000 l    d  .debug_frame	00000000 .debug_frame
00000000 l    d  .debug_str	00000000 .debug_str
00000000 l    d  .debug_loc	00000000 .debug_loc
00000000 l    d  .debug_alt_sim_info	00000000 .debug_alt_sim_info
00000000 l    d  .debug_ranges	00000000 .debug_ranges
00000000 l    df *ABS*	00000000 ../miniproject1_bsp//obj/HAL/src/crt0.o
04040268 l       .text	00000000 alt_after_alt_main
00000000 l    df *ABS*	00000000 alt_irq_handler.c
00000000 l    df *ABS*	00000000 alt_instruction_exception_entry.c
00000000 l    df *ABS*	00000000 hello_world.c
00001e5c l     O .rwdata	00000004 b
00001e60 l     O .rwdata	00000004 i.3592
00001ee4 l     O .bss	00000018 alarm1.3632
00001efc l     O .bss	00000018 alarm2.3633
00000000 l    df *ABS*	00000000 libgcc2.c
00000000 l    df *ABS*	00000000 lib2-divmod.c
00000000 l    df *ABS*	00000000 lib2-mul.c
00000000 l    df *ABS*	00000000 addsf3.c
00000000 l    df *ABS*	00000000 lesf2.c
00000000 l    df *ABS*	00000000 floatsisf.c
00000000 l    df *ABS*	00000000 floatunsisf.c
00000000 l    df *ABS*	00000000 divdf3.c
00000000 l    df *ABS*	00000000 gedf2.c
00000000 l    df *ABS*	00000000 muldf3.c
00000000 l    df *ABS*	00000000 subdf3.c
00000000 l    df *ABS*	00000000 fixdfsi.c
00000000 l    df *ABS*	00000000 floatsidf.c
00000000 l    df *ABS*	00000000 floatunsidf.c
00000000 l    df *ABS*	00000000 libgcc2.c
00000000 l    df *ABS*	00000000 libgcc2.c
00000000 l    df *ABS*	00000000 printf.c
00000000 l    df *ABS*	00000000 vfprintf.c
000001be l     O .rodata	00000010 zeroes.4404
04045654 l     F .text	000000bc __sbprintf
000001ce l     O .rodata	00000010 blanks.4403
00000000 l    df *ABS*	00000000 wsetup.c
00000000 l    df *ABS*	00000000 dtoa.c
04045864 l     F .text	00000228 quorem
00000000 l    df *ABS*	00000000 fflush.c
00000000 l    df *ABS*	00000000 findfp.c
040473bc l     F .text	00000008 __fp_unlock
040473d0 l     F .text	0000019c __sinit.part.1
0404756c l     F .text	00000008 __fp_lock
00000000 l    df *ABS*	00000000 mallocr.c
00000000 l    df *ABS*	00000000 fwalk.c
00000000 l    df *ABS*	00000000 impure.c
00000384 l     O .rwdata	00000424 impure_data
00000000 l    df *ABS*	00000000 locale.c
000007c8 l     O .rwdata	00000020 lc_ctype_charset
000007a8 l     O .rwdata	00000020 lc_message_charset
000007e8 l     O .rwdata	00000038 lconv
00000000 l    df *ABS*	00000000 makebuf.c
00000000 l    df *ABS*	00000000 mallocr.c
00000000 l    df *ABS*	00000000 memchr.c
00000000 l    df *ABS*	00000000 memcpy.c
00000000 l    df *ABS*	00000000 memset.c
00000000 l    df *ABS*	00000000 mprec.c
00000200 l     O .rodata	0000000c p05.2768
00000000 l    df *ABS*	00000000 s_fpclassify.c
00000000 l    df *ABS*	00000000 sbrkr.c
00000000 l    df *ABS*	00000000 stdio.c
00000000 l    df *ABS*	00000000 strcmp.c
00000000 l    df *ABS*	00000000 strlen.c
00000000 l    df *ABS*	00000000 vfprintf.c
04049f50 l     F .text	000000fc __sprint_r.part.0
00000324 l     O .rodata	00000010 zeroes.4349
0404b58c l     F .text	000000bc __sbprintf
00000334 l     O .rodata	00000010 blanks.4348
00000000 l    df *ABS*	00000000 writer.c
00000000 l    df *ABS*	00000000 closer.c
00000000 l    df *ABS*	00000000 mallocr.c
00000000 l    df *ABS*	00000000 fclose.c
00000000 l    df *ABS*	00000000 fputwc.c
00000000 l    df *ABS*	00000000 fstatr.c
00000000 l    df *ABS*	00000000 fvwrite.c
00000000 l    df *ABS*	00000000 int_errno.c
00000000 l    df *ABS*	00000000 isattyr.c
00000000 l    df *ABS*	00000000 lseekr.c
00000000 l    df *ABS*	00000000 memmove.c
00000000 l    df *ABS*	00000000 readr.c
00000000 l    df *ABS*	00000000 mallocr.c
00000000 l    df *ABS*	00000000 wbuf.c
00000000 l    df *ABS*	00000000 wcrtomb.c
00000000 l    df *ABS*	00000000 wctomb_r.c
00000000 l    df *ABS*	00000000 libgcc2.c
00000000 l    df *ABS*	00000000 libgcc2.c
00000000 l    df *ABS*	00000000 adddf3.c
00000000 l    df *ABS*	00000000 eqdf2.c
00000000 l    df *ABS*	00000000 ledf2.c
00000000 l    df *ABS*	00000000 alt_alarm_start.c
00000000 l    df *ABS*	00000000 alt_close.c
0404e230 l     F .text	0000003c alt_get_errno
00000000 l    df *ABS*	00000000 alt_dev.c
0404e344 l     F .text	0000002c alt_dev_null_write
00000000 l    df *ABS*	00000000 alt_errno.c
00000000 l    df *ABS*	00000000 alt_fstat.c
0404e370 l     F .text	0000003c alt_get_errno
00000000 l    df *ABS*	00000000 alt_isatty.c
0404e464 l     F .text	0000003c alt_get_errno
00000000 l    df *ABS*	00000000 alt_load.c
0404e54c l     F .text	00000068 alt_load_section
00000000 l    df *ABS*	00000000 alt_lseek.c
0404e638 l     F .text	0000003c alt_get_errno
00000000 l    df *ABS*	00000000 alt_main.c
00000000 l    df *ABS*	00000000 alt_malloc_lock.c
00000000 l    df *ABS*	00000000 alt_read.c
0404e814 l     F .text	0000003c alt_get_errno
00000000 l    df *ABS*	00000000 alt_release_fd.c
00000000 l    df *ABS*	00000000 alt_sbrk.c
00001e94 l     O .rwdata	00000004 heap_end
00000000 l    df *ABS*	00000000 alt_tick.c
00000000 l    df *ABS*	00000000 alt_write.c
0404ec2c l     F .text	0000003c alt_get_errno
00000000 l    df *ABS*	00000000 alt_sys_init.c
0404ed68 l     F .text	00000034 alt_dev_reg
00000dd0 l     O .rwdata	00001060 jtag_uart_0
00001e30 l     O .rwdata	0000002c adc_0
00000000 l    df *ABS*	00000000 altera_avalon_jtag_uart_fd.c
00000000 l    df *ABS*	00000000 altera_avalon_jtag_uart_init.c
0404f080 l     F .text	0000020c altera_avalon_jtag_uart_irq
0404f28c l     F .text	000000a0 altera_avalon_jtag_uart_timeout
00000000 l    df *ABS*	00000000 altera_avalon_jtag_uart_ioctl.c
00000000 l    df *ABS*	00000000 altera_avalon_jtag_uart_read.c
00000000 l    df *ABS*	00000000 altera_avalon_jtag_uart_write.c
00000000 l    df *ABS*	00000000 altera_avalon_timer_sc.c
0404f8c4 l     F .text	00000078 alt_avalon_timer_sc_irq
00000000 l    df *ABS*	00000000 altera_avalon_timer_ts.c
00000000 l    df *ABS*	00000000 altera_avalon_timer_vars.c
00000000 l    df *ABS*	00000000 alt_dcache_flush_all.c
00000000 l    df *ABS*	00000000 alt_dev_llist_insert.c
0404faf0 l     F .text	0000003c alt_get_errno
00000000 l    df *ABS*	00000000 alt_do_ctors.c
00000000 l    df *ABS*	00000000 alt_do_dtors.c
00000000 l    df *ABS*	00000000 alt_icache_flush_all.c
00000000 l    df *ABS*	00000000 alt_iic.c
00000000 l    df *ABS*	00000000 alt_iic_isr_register.c
00000000 l    df *ABS*	00000000 alt_io_redirect.c
0404ff50 l     F .text	000000e4 alt_open_fd
00000000 l    df *ABS*	00000000 alt_irq_vars.c
00000000 l    df *ABS*	00000000 alt_open.c
040500b0 l     F .text	0000003c alt_get_errno
040500ec l     F .text	000000ec alt_file_locked
00000000 l    df *ABS*	00000000 altera_nios2_gen2_irq.c
00000000 l    df *ABS*	00000000 alt_find_dev.c
00000000 l    df *ABS*	00000000 alt_find_file.c
00000000 l    df *ABS*	00000000 alt_get_fd.c
00000000 l    df *ABS*	00000000 atexit.c
00000000 l    df *ABS*	00000000 exit.c
00000000 l    df *ABS*	00000000 memcmp.c
00000000 l    df *ABS*	00000000 __atexit.c
00000000 l    df *ABS*	00000000 __call_atexit.c
00000000 l    df *ABS*	00000000 alt_exit.c
00001ee0 g     O .bss	00000004 alt_instruction_exception_handler
04049a60 g     F .text	00000074 _mprec_log10
04049b4c g     F .text	0000008c __any_on
0404c008 g     F .text	00000054 _isatty_r
0000020c g     O .rodata	00000028 __mprec_tinytens
0404e750 g     F .text	0000007c alt_main
00001f3c g     O .bss	00000100 alt_irq
0404c05c g     F .text	00000060 _lseek_r
04050d68 g       *ABS*	00000000 __flash_rwdata_start
0404df88 g     F .text	00000088 .hidden __eqdf2
0000203c g       *ABS*	00000000 __alt_heap_start
04043320 g     F .text	0000003c printf
0404c934 g     F .text	0000009c _wcrtomb_r
04049d78 g     F .text	0000005c __sseek
0404771c g     F .text	00000010 __sinit
0404c7dc g     F .text	00000140 __swbuf_r
04047d28 g     F .text	0000007c _setlocale_r
04047574 g     F .text	00000078 __sfmoreglue
0404e7f0 g     F .text	00000024 __malloc_unlock
00001ed8 g     O .bss	00000004 altera_avalon_timer_ts_freq
0404c0bc g     F .text	0000015c memmove
04047704 g     F .text	00000018 _cleanup
04048b20 g     F .text	000000a8 _Balloc
04041e44 g     F .text	000000dc .hidden __gtdf2
04050334 g     F .text	00000024 altera_nios2_gen2_irq_init
04040000 g     F .entry	0000000c __reset
04040020 g       *ABS*	00000000 __flash_exceptions_start
0404bae4 g     F .text	0000005c _fstat_r
00001ebc g     O .bss	00000004 errno
04049cf4 g     F .text	00000008 __seofread
00001ec4 g     O .bss	00000004 alt_argv
00009e5c g       *ABS*	00000000 _gp
00000c50 g     O .rwdata	00000180 alt_fd_list
04050358 g     F .text	00000090 alt_find_dev
040488b0 g     F .text	00000148 memcpy
040473c4 g     F .text	0000000c _cleanup_r
04043108 g     F .text	000000dc .hidden __floatsidf
04050034 g     F .text	0000007c alt_io_redirect
0404e010 g     F .text	000000f4 .hidden __ltdf2
040509e4 g       *ABS*	00000000 __DTOR_END__
040505b4 g     F .text	0000009c alt_exception_cause_generated_bad_addr
04049bd8 g     F .text	00000074 __fpclassifyd
040499bc g     F .text	000000a4 __ratio
0404b570 g     F .text	0000001c __vfiprintf_internal
0404f484 g     F .text	0000021c altera_avalon_jtag_uart_read
040432f0 g     F .text	00000030 _printf_r
04040bec g     F .text	00000064 .hidden __udivsi3
0404e4a0 g     F .text	000000ac isatty
0000025c g     O .rodata	000000c8 __mprec_tens
04047da4 g     F .text	0000000c __locale_charset
04041198 g     F .text	000000c8 .hidden __lesf2
04040a80 g     F .text	00000074 .hidden __fixunsdfsi
00001eb8 g     O .bss	00000004 __malloc_top_pad
00001e6c g     O .rwdata	00000004 __mb_cur_max
04047dd4 g     F .text	0000000c _localeconv_r
0404bb40 g     F .text	000004c8 __sfvwrite_r
04048f54 g     F .text	0000003c __i2b
04049c4c g     F .text	00000054 _sbrk_r
0404c218 g     F .text	00000060 _read_r
00001e8c g     O .rwdata	00000004 alt_max_fd
0404b7d8 g     F .text	000000f0 _fclose_r
0404738c g     F .text	00000030 fflush
00001eb4 g     O .bss	00000004 __malloc_max_sbrked_mem
0404d6dc g     F .text	000008ac .hidden __adddf3
04049764 g     F .text	0000010c __b2d
0404d118 g     F .text	000005c4 .hidden __umoddi3
0404e674 g     F .text	000000dc lseek
00001e64 g     O .rwdata	00000004 _global_impure_ptr
0404c278 g     F .text	00000564 _realloc_r
0000203c g       *ABS*	00000000 __bss_end
0404fe60 g     F .text	000000f0 alt_iic_isr_register
0404eb24 g     F .text	00000108 alt_tick
0404cb1c g     F .text	000005fc .hidden __udivdi3
0404ba40 g     F .text	00000024 _fputwc_r
00000234 g     O .rodata	00000028 __mprec_bigtens
04048d38 g     F .text	00000104 __s2b
040431e4 g     F .text	000000a8 .hidden __floatunsidf
040494a4 g     F .text	00000060 __mcmp
0404773c g     F .text	00000018 __fp_lock_all
0404fe14 g     F .text	0000004c alt_ic_irq_enabled
0404ea88 g     F .text	0000009c alt_alarm_stop
00001edc g     O .bss	00000004 alt_irq_active
040400fc g     F .exceptions	000000d4 alt_irq_handler
00000c28 g     O .rwdata	00000028 alt_dev_null
00000030 g     O .rodata	00000028 table
0404fad0 g     F .text	00000020 alt_dcache_flush_all
04048e3c g     F .text	00000068 __hi0bits
04043088 g     F .text	00000080 .hidden __fixdfsi
00001ea4 g       *ABS*	00000000 __ram_rwdata_end
00001e84 g     O .rwdata	00000008 alt_dev_list
0404ec68 g     F .text	00000100 write
0404fab0 g     F .text	00000020 alt_timestamp_freq
00000384 g       *ABS*	00000000 __ram_rodata_end
0404e3ac g     F .text	000000b8 fstat
0404e010 g     F .text	000000f4 .hidden __ledf2
0404921c g     F .text	00000140 __pow5mult
0404a064 g     F .text	0000150c ___vfiprintf_internal_r
00001eac g     O .bss	00000004 __nlocale_changed
04040c50 g     F .text	00000058 .hidden __umodsi3
04040338 g     F .text	00000110 blink
0000203c g       *ABS*	00000000 end
00000000 g       *ABS*	00000000 __alt_mem_DRAM
0404efc0 g     F .text	000000c0 altera_avalon_jtag_uart_init
040401d0 g     F .exceptions	00000060 alt_instruction_exception_entry
040509e4 g       *ABS*	00000000 __CTOR_LIST__
04000000 g       *ABS*	00000000 __alt_stack_pointer
0404f93c g     F .text	0000007c alt_avalon_timer_sc_init
0404328c g     F .text	00000064 .hidden __clzsi2
0404f6a0 g     F .text	00000224 altera_avalon_jtag_uart_write
0404772c g     F .text	00000004 __sfp_lock_acquire
040487cc g     F .text	000000e4 memchr
0404335c g     F .text	000022dc ___vfprintf_internal_r
04047890 g     F .text	00000310 _free_r
04047db0 g     F .text	00000010 __locale_mb_cur_max
04050830 g     F .text	00000180 __call_exitprocs
00001ea8 g     O .bss	00000004 __mlocale_changed
00001e70 g     O .rwdata	00000004 __malloc_sbrk_base
04040230 g     F .text	0000003c _start
00001ecc g     O .bss	00000004 _alt_tick_rate
0404935c g     F .text	00000148 __lshift
00001ed0 g     O .bss	00000004 _alt_nticks
0404e850 g     F .text	00000104 read
0404edd4 g     F .text	00000088 alt_sys_init
04041260 g     F .text	00000124 .hidden __floatsisf
04050718 g     F .text	00000118 __register_exitproc
04048f90 g     F .text	0000028c __multiply
0404f32c g     F .text	00000068 altera_avalon_jtag_uart_close
04040ca8 g     F .text	00000028 .hidden __mulsi3
00000384 g       *ABS*	00000000 __ram_rwdata_start
04040448 g     F .text	00000260 adc
00000000 g       *ABS*	00000000 __ram_rodata_start
00001f14 g     O .bss	00000028 __malloc_current_mallinfo
04049870 g     F .text	0000014c __d2b
00000058 g     O .rodata	00000020 v
0404ee5c g     F .text	00000060 altera_avalon_jtag_uart_read_fd
040504f0 g     F .text	000000c4 alt_get_fd
0404b6a8 g     F .text	00000054 _close_r
0405069c g     F .text	0000007c memcmp
0404ef1c g     F .text	00000050 altera_avalon_jtag_uart_close_fd
0000203c g       *ABS*	00000000 __alt_stack_base
0404ef6c g     F .text	00000054 altera_avalon_jtag_uart_ioctl_fd
04045710 g     F .text	00000154 __swsetup_r
04041474 g     F .text	000009d0 .hidden __divdf3
040475ec g     F .text	00000118 __sfp
04049ad4 g     F .text	00000078 __copybits
04040000 g       *ABS*	00000000 __alt_mem_IMEM
00000820 g     O .rwdata	00000408 __malloc_av_
04047738 g     F .text	00000004 __sinit_lock_release
04041f20 g     F .text	0000086c .hidden __muldf3
04049ca0 g     F .text	00000054 __sread
040503e8 g     F .text	00000108 alt_find_file
0404fb2c g     F .text	000000a4 alt_dev_llist_insert
0404e7cc g     F .text	00000024 __malloc_lock
0404e9d8 g     F .text	000000b0 sbrk
00000000 g     O .rodata	00000030 num
04047330 g     F .text	0000005c _fflush_r
0404b6fc g     F .text	000000dc _calloc_r
00001ea4 g       *ABS*	00000000 __bss_start
040489f8 g     F .text	00000128 memset
040408f4 g     F .text	0000018c main
040406a8 g     F .text	00000110 delay_ms
00001ec8 g     O .bss	00000004 alt_envp
00001eb0 g     O .bss	00000004 __malloc_max_total_mem
0404eebc g     F .text	00000060 altera_avalon_jtag_uart_write_fd
0404c91c g     F .text	00000018 __swbuf
04041198 g     F .text	000000c8 .hidden __ltsf2
04049dd4 g     F .text	00000008 __sclose
04000000 g       *ABS*	00000000 __alt_heap_limit
0404b8c8 g     F .text	00000014 fclose
0404f9b8 g     F .text	00000078 alt_timestamp_start
04045a8c g     F .text	00001688 _dtoa_r
04047fc0 g     F .text	0000080c _malloc_r
0404ca90 g     F .text	00000030 __ascii_wctomb
00001e90 g     O .rwdata	00000004 alt_errno
04047ba0 g     F .text	000000c4 _fwalk
04040af4 g     F .text	00000084 .hidden __divsi3
0404776c g     F .text	00000124 _malloc_trim_r
040509e4 g       *ABS*	00000000 __CTOR_END__
04049ddc g     F .text	000000dc strcmp
040509e4 g       *ABS*	00000000 __flash_rodata_start
040509e4 g       *ABS*	00000000 __DTOR_LIST__
0404df88 g     F .text	00000088 .hidden __nedf2
0404ed9c g     F .text	00000038 alt_irq_init
0404e954 g     F .text	00000084 alt_release_fd
0000007c g     O .rodata	00000100 .hidden __clz_tab
00001ea4 g     O .bss	00000004 _PathLocale
04050650 g     F .text	00000014 atexit
0404b648 g     F .text	00000060 _write_r
04047de0 g     F .text	00000018 setlocale
00001e68 g     O .rwdata	00000004 _impure_ptr
00001ec0 g     O .bss	00000004 alt_argc
0404026c g     F .text	00000064 SendCommand
04047114 g     F .text	0000021c __sflush_r
00001ed4 g     O .bss	00000004 altera_avalon_timer_ts_base
0404fc30 g     F .text	00000060 _do_dtors
04047dcc g     F .text	00000008 __locale_cjk_lang
04040020 g       .exceptions	00000000 alt_irq_entry
04049700 g     F .text	00000064 __ulp
04047754 g     F .text	00000018 __fp_unlock_all
00001e7c g     O .rwdata	00000008 alt_fs_list
04040020 g       *ABS*	00000000 __ram_exceptions_start
04047df8 g     F .text	0000000c localeconv
0404fa30 g     F .text	00000080 alt_timestamp
0404fcb0 g     F .text	00000050 alt_ic_isr_register
00001ea4 g       *ABS*	00000000 _edata
0000203c g       *ABS*	00000000 _end
0404b8dc g     F .text	00000164 __fputwc
04040230 g       *ABS*	00000000 __ram_exceptions_end
0404f394 g     F .text	000000f0 altera_avalon_jtag_uart_ioctl
0404fd88 g     F .text	0000008c alt_ic_irq_disable
04049cfc g     F .text	0000007c __swrite
00001e74 g     O .rwdata	00000004 __malloc_trim_threshold
04047dc0 g     F .text	0000000c __locale_msgcharset
04050664 g     F .text	00000038 exit
04047c64 g     F .text	000000c4 _fwalk_reent
04041384 g     F .text	000000f0 .hidden __floatunsisf
04049504 g     F .text	000001fc __mdiff
04040b78 g     F .text	00000074 .hidden __modsi3
04000000 g       *ABS*	00000000 __alt_data_end
04040020 g     F .exceptions	00000000 alt_exception
04047730 g     F .text	00000004 __sfp_lock_release
040509b0 g     F .text	00000034 _exit
0404e104 g     F .text	0000012c alt_alarm_start
04047e04 g     F .text	000001bc __smakebuf_r
04049eb8 g     F .text	00000098 strlen
040501d8 g     F .text	0000015c open
04041e44 g     F .text	000000dc .hidden __gedf2
00001e78 g     O .rwdata	00000004 __wctomb
0404a04c g     F .text	00000018 __sprint_r
0404fc90 g     F .text	00000020 alt_icache_flush_all
00001ea0 g     O .rwdata	00000004 alt_priority_mask
0404fd00 g     F .text	00000088 alt_ic_irq_enable
04045638 g     F .text	0000001c __vfprintf_internal
040407b8 g     F .text	0000013c division
0404cac0 g     F .text	0000005c _wctomb_r
040402d0 g     F .text	00000068 SendData
0404278c g     F .text	000008fc .hidden __subdf3
04048ea4 g     F .text	000000b0 __lo0bits
00001e98 g     O .rwdata	00000008 alt_alarm_list
0404fbd0 g     F .text	00000060 _do_ctors
0404c9d0 g     F .text	000000c0 wcrtomb
0404e26c g     F .text	000000d8 close
04040cd0 g     F .text	000004c8 .hidden __addsf3
0404e5b4 g     F .text	00000084 alt_load
0404ba64 g     F .text	00000080 fputwc
04047734 g     F .text	00000004 __sinit_lock_acquire
04048bf0 g     F .text	00000148 __multadd
04048bc8 g     F .text	00000028 _Bfree



Disassembly of section .entry:

04040000 <__reset>:
 * Jump to the _start entry point in the .text section if reset code
 * is allowed or if optimizing for RTL simulation.
 */
#if defined(ALT_ALLOW_CODE_AT_RESET) || defined(ALT_SIM_OPTIMIZE)
    /* Jump to the _start entry point in the .text section. */
    movhi r1, %hi(_start)
 4040000:	00410134 	movhi	at,1028
    ori r1, r1, %lo(_start)
 4040004:	08408c14 	ori	at,at,560
    jmp r1
 4040008:	0800683a 	jmp	at
	...

Disassembly of section .exceptions:

04040020 <alt_exception>:

#else /* ALT_EXCEPTION_STACK disabled */
        /* 
         * Reserve space on normal stack for registers about to be pushed.
         */
        addi  sp, sp, -76
 4040020:	deffed04 	addi	sp,sp,-76
         * documentation for details).
         *
         * Leave a gap in the stack frame at 4(sp) for the muldiv handler to
         * store zero into.
         */
        stw   ra,  0(sp)
 4040024:	dfc00015 	stw	ra,0(sp)
        stw   r1,   8(sp)
 4040028:	d8400215 	stw	at,8(sp)
        stw   r2,  12(sp)
 404002c:	d8800315 	stw	r2,12(sp)
        stw   r3,  16(sp)
 4040030:	d8c00415 	stw	r3,16(sp)
        stw   r4,  20(sp)
 4040034:	d9000515 	stw	r4,20(sp)
        stw   r5,  24(sp)
 4040038:	d9400615 	stw	r5,24(sp)
        stw   r6,  28(sp)
 404003c:	d9800715 	stw	r6,28(sp)
        stw   r7,  32(sp)
 4040040:	d9c00815 	stw	r7,32(sp)
        rdctl r5, estatus   /* Read early to avoid usage stall */
 4040044:	000b307a 	rdctl	r5,estatus
        stw   r8,  36(sp)
 4040048:	da000915 	stw	r8,36(sp)
        stw   r9,  40(sp)
 404004c:	da400a15 	stw	r9,40(sp)
        stw   r10, 44(sp)
 4040050:	da800b15 	stw	r10,44(sp)
        stw   r11, 48(sp)
 4040054:	dac00c15 	stw	r11,48(sp)
        stw   r12, 52(sp)
 4040058:	db000d15 	stw	r12,52(sp)
        stw   r13, 56(sp)
 404005c:	db400e15 	stw	r13,56(sp)
        stw   r14, 60(sp)
 4040060:	db800f15 	stw	r14,60(sp)
        stw   r15, 64(sp)
 4040064:	dbc01015 	stw	r15,64(sp)
        /*
         * ea-4 contains the address of the instruction being executed
         * when the exception occured. For interrupt exceptions, we will
         * will be re-issue the isntruction. Store it in 72(sp)
         */
        stw   r5,  68(sp)  /* estatus */
 4040068:	d9401115 	stw	r5,68(sp)
        addi  r15, ea, -4  /* instruction that caused exception */
 404006c:	ebffff04 	addi	r15,ea,-4
        stw   r15,  72(sp)
 4040070:	dbc01215 	stw	r15,72(sp)
#else
        /*
         * Test to see if the exception was a software exception or caused 
         * by an external interrupt, and vector accordingly.
         */
        rdctl r4, ipending
 4040074:	0009313a 	rdctl	r4,ipending
        andi  r2, r5, 1
 4040078:	2880004c 	andi	r2,r5,1
        beq   r2, zero, .Lnot_irq
 404007c:	10000326 	beq	r2,zero,404008c <alt_exception+0x6c>
        beq   r4, zero, .Lnot_irq
 4040080:	20000226 	beq	r4,zero,404008c <alt_exception+0x6c>
        /*
         * Now that all necessary registers have been preserved, call 
         * alt_irq_handler() to process the interrupts.
         */

        call alt_irq_handler
 4040084:	40400fc0 	call	40400fc <alt_irq_handler>

        .section .exceptions.irqreturn, "xa"

        br    .Lexception_exit
 4040088:	00000706 	br	40400a8 <alt_exception+0x88>
         * upon completion, so we write ea (address of instruction *after*
         * the one where the exception occured) into 72(sp). The actual
         * instruction that caused the exception is written in r2, which these
         * handlers will utilize.
         */
        stw ea, 72(sp) /* EA is PC+4 so will skip over instruction causing exception */
 404008c:	df401215 	stw	ea,72(sp)
.Lunknown_16bit:
        addi.n r4, r4, 2 /* Need PC+2 to skip over instruction causing exception */
        stw r4, 72(sp)

#else /* CDX is not Enabled and all instructions are 32bits */
        ldw r2, -4(ea) /* Instruction value that caused exception */
 4040090:	e8bfff17 	ldw	r2,-4(ea)
         * debugger is present) or go into an infinite loop since the
         * handling behavior is undefined; in that case we will not return here.
         */

        /* Load exception-causing address as first argument (r4) */
        addi   r4, ea, -4
 4040094:	e93fff04 	addi	r4,ea,-4

        /* Call the instruction-exception entry */
        call   alt_instruction_exception_entry
 4040098:	40401d00 	call	40401d0 <alt_instruction_exception_entry>
         * instruction
         *
         * Return code was 0: Skip. The instruction after the exception is
         * already stored in 72(sp).
         */
        bne   r2, r0, .Lexception_exit
 404009c:	1000021e 	bne	r2,zero,40400a8 <alt_exception+0x88>

        /*
         * Otherwise, modify 72(sp) to re-issue the instruction that caused the
         * exception.
         */
        addi  r15, ea, -4  /* instruction that caused exception */
 40400a0:	ebffff04 	addi	r15,ea,-4
        stw   r15,  72(sp)
 40400a4:	dbc01215 	stw	r15,72(sp)
        /* 
         * Restore the saved registers, so that all general purpose registers 
         * have been restored to their state at the time the interrupt occured.
         */

        ldw   r5,  68(sp)
 40400a8:	d9401117 	ldw	r5,68(sp)
        ldw   ea,  72(sp)  /* This becomes the PC once eret is executed */
 40400ac:	df401217 	ldw	ea,72(sp)
        ldw   ra,   0(sp)
 40400b0:	dfc00017 	ldw	ra,0(sp)

        wrctl estatus, r5
 40400b4:	2801707a 	wrctl	estatus,r5

        ldw   r1,   8(sp)
 40400b8:	d8400217 	ldw	at,8(sp)
        ldw   r2,  12(sp)
 40400bc:	d8800317 	ldw	r2,12(sp)
        ldw   r3,  16(sp)
 40400c0:	d8c00417 	ldw	r3,16(sp)
        ldw   r4,  20(sp)
 40400c4:	d9000517 	ldw	r4,20(sp)
        ldw   r5,  24(sp)
 40400c8:	d9400617 	ldw	r5,24(sp)
        ldw   r6,  28(sp)
 40400cc:	d9800717 	ldw	r6,28(sp)
        ldw   r7,  32(sp)
 40400d0:	d9c00817 	ldw	r7,32(sp)

#if defined(ALT_EXCEPTION_STACK) && defined(ALT_STACK_CHECK)
        ldw   et, %gprel(alt_exception_old_stack_limit)(gp)
#endif

        ldw   r8,  36(sp)
 40400d4:	da000917 	ldw	r8,36(sp)
        ldw   r9,  40(sp)
 40400d8:	da400a17 	ldw	r9,40(sp)
        ldw   r10, 44(sp)
 40400dc:	da800b17 	ldw	r10,44(sp)
        ldw   r11, 48(sp)
 40400e0:	dac00c17 	ldw	r11,48(sp)
        ldw   r12, 52(sp)
 40400e4:	db000d17 	ldw	r12,52(sp)
        ldw   r13, 56(sp)
 40400e8:	db400e17 	ldw	r13,56(sp)
        ldw   r14, 60(sp)
 40400ec:	db800f17 	ldw	r14,60(sp)
        ldw   r15, 64(sp)
 40400f0:	dbc01017 	ldw	r15,64(sp)
        stw   et, %gprel(alt_stack_limit_value)(gp)
        stw   zero, %gprel(alt_exception_old_stack_limit)(gp)
#endif /* ALT_STACK_CHECK */
        ldw   sp,  76(sp)
#else /* ALT_EXCEPTION_STACK disabled */
        addi  sp, sp, 76
 40400f4:	dec01304 	addi	sp,sp,76

        /*
         * Return to the interrupted instruction.
         */

        eret
 40400f8:	ef80083a 	eret

040400fc <alt_irq_handler>:
 * instruction is present if the macro ALT_CI_INTERRUPT_VECTOR defined.
 */

void alt_irq_handler (void) __attribute__ ((section (".exceptions")));
void alt_irq_handler (void)
{
 40400fc:	defff904 	addi	sp,sp,-28
 4040100:	dfc00615 	stw	ra,24(sp)
 4040104:	df000515 	stw	fp,20(sp)
 4040108:	df000504 	addi	fp,sp,20
  
  /*
   * Notify the operating system that we are at interrupt level.
   */ 
  
  ALT_OS_INT_ENTER();
 404010c:	0001883a 	nop
#ifndef NIOS2_EIC_PRESENT
static ALT_INLINE alt_u32 ALT_ALWAYS_INLINE alt_irq_pending (void)
{
  alt_u32 active;

  NIOS2_READ_IPENDING (active);
 4040110:	0005313a 	rdctl	r2,ipending
 4040114:	e0bffe15 	stw	r2,-8(fp)

  return active;
 4040118:	e0bffe17 	ldw	r2,-8(fp)
   * Consider the case where the high priority interupt is asserted during
   * the interrupt entry sequence for a lower priority interrupt to see why
   * this is the case.
   */

  active = alt_irq_pending ();
 404011c:	e0bffb15 	stw	r2,-20(fp)

  do
  {
    i = 0;
 4040120:	e03ffd15 	stw	zero,-12(fp)
    mask = 1;
 4040124:	00800044 	movi	r2,1
 4040128:	e0bffc15 	stw	r2,-16(fp)
     * called to clear the interrupt condition.
     */

    do
    {
      if (active & mask)
 404012c:	e0fffb17 	ldw	r3,-20(fp)
 4040130:	e0bffc17 	ldw	r2,-16(fp)
 4040134:	1884703a 	and	r2,r3,r2
 4040138:	10001426 	beq	r2,zero,404018c <alt_irq_handler+0x90>
      { 
#ifdef ALT_ENHANCED_INTERRUPT_API_PRESENT
        alt_irq[i].handler(alt_irq[i].context); 
 404013c:	00800034 	movhi	r2,0
 4040140:	1087cf04 	addi	r2,r2,7996
 4040144:	e0fffd17 	ldw	r3,-12(fp)
 4040148:	180690fa 	slli	r3,r3,3
 404014c:	10c5883a 	add	r2,r2,r3
 4040150:	10c00017 	ldw	r3,0(r2)
 4040154:	00800034 	movhi	r2,0
 4040158:	1087cf04 	addi	r2,r2,7996
 404015c:	e13ffd17 	ldw	r4,-12(fp)
 4040160:	200890fa 	slli	r4,r4,3
 4040164:	1105883a 	add	r2,r2,r4
 4040168:	10800104 	addi	r2,r2,4
 404016c:	10800017 	ldw	r2,0(r2)
 4040170:	1009883a 	mov	r4,r2
 4040174:	183ee83a 	callr	r3
#else
        alt_irq[i].handler(alt_irq[i].context, i); 
#endif
        break;
 4040178:	0001883a 	nop
#ifndef NIOS2_EIC_PRESENT
static ALT_INLINE alt_u32 ALT_ALWAYS_INLINE alt_irq_pending (void)
{
  alt_u32 active;

  NIOS2_READ_IPENDING (active);
 404017c:	0005313a 	rdctl	r2,ipending
 4040180:	e0bfff15 	stw	r2,-4(fp)

  return active;
 4040184:	e0bfff17 	ldw	r2,-4(fp)
 4040188:	00000706 	br	40401a8 <alt_irq_handler+0xac>
      }
      mask <<= 1;
 404018c:	e0bffc17 	ldw	r2,-16(fp)
 4040190:	1085883a 	add	r2,r2,r2
 4040194:	e0bffc15 	stw	r2,-16(fp)
      i++;
 4040198:	e0bffd17 	ldw	r2,-12(fp)
 404019c:	10800044 	addi	r2,r2,1
 40401a0:	e0bffd15 	stw	r2,-12(fp)

    } while (1);
 40401a4:	003fe106 	br	404012c <__flash_rwdata_start+0xfffef3c4>

    active = alt_irq_pending ();
 40401a8:	e0bffb15 	stw	r2,-20(fp)
    
  } while (active);
 40401ac:	e0bffb17 	ldw	r2,-20(fp)
 40401b0:	103fdb1e 	bne	r2,zero,4040120 <__flash_rwdata_start+0xfffef3b8>

  /*
   * Notify the operating system that interrupt processing is complete.
   */ 

  ALT_OS_INT_EXIT();
 40401b4:	0001883a 	nop
}
 40401b8:	0001883a 	nop
 40401bc:	e037883a 	mov	sp,fp
 40401c0:	dfc00117 	ldw	ra,4(sp)
 40401c4:	df000017 	ldw	fp,0(sp)
 40401c8:	dec00204 	addi	sp,sp,8
 40401cc:	f800283a 	ret

040401d0 <alt_instruction_exception_entry>:
 * that handler if it has been registered. Absent a handler, it will
 * break break or hang as discussed below.
 */
int 
alt_instruction_exception_entry (alt_u32 exception_pc)
{
 40401d0:	defffb04 	addi	sp,sp,-20
 40401d4:	dfc00415 	stw	ra,16(sp)
 40401d8:	df000315 	stw	fp,12(sp)
 40401dc:	df000304 	addi	fp,sp,12
 40401e0:	e13fff15 	stw	r4,-4(fp)
  cause = ( (cause & NIOS2_EXCEPTION_REG_CAUSE_MASK) >>
              NIOS2_EXCEPTION_REG_CAUSE_OFST );

  NIOS2_READ_BADADDR(badaddr);
#else
  cause = NIOS2_EXCEPTION_CAUSE_NOT_PRESENT;
 40401e4:	00bfffc4 	movi	r2,-1
 40401e8:	e0bffd15 	stw	r2,-12(fp)
  badaddr = 0;
 40401ec:	e03ffe15 	stw	zero,-8(fp)
#endif /* NIOS2_HAS_EXTRA_EXCEPTION_INFO */

  if(alt_instruction_exception_handler) {
 40401f0:	d0a02117 	ldw	r2,-32636(gp)
 40401f4:	10000726 	beq	r2,zero,4040214 <alt_instruction_exception_entry+0x44>
     * Call handler. Its return value indicates whether the exception-causing
     * instruction should be re-issued. The code that called us,
     * alt_eceptions_entry.S, will look at this value and adjust the ea
     * register as necessary
     */
    return alt_instruction_exception_handler(cause, exception_pc, badaddr);
 40401f8:	d0a02117 	ldw	r2,-32636(gp)
 40401fc:	e0fffd17 	ldw	r3,-12(fp)
 4040200:	e1bffe17 	ldw	r6,-8(fp)
 4040204:	e17fff17 	ldw	r5,-4(fp)
 4040208:	1809883a 	mov	r4,r3
 404020c:	103ee83a 	callr	r2
 4040210:	00000206 	br	404021c <alt_instruction_exception_entry+0x4c>
   *    (a peripheral which negates its interrupt output before its
   *    interrupt handler has been executed will cause spurious interrupts)
   */
  else {
#ifdef NIOS2_HAS_DEBUG_STUB
    NIOS2_BREAK();
 4040214:	003da03a 	break	0
      ;
#endif /* NIOS2_HAS_DEBUG_STUB */
  }

  /* We should not get here. Remove compiler warning. */
  return NIOS2_EXCEPTION_RETURN_REISSUE_INST;
 4040218:	0005883a 	mov	r2,zero
}
 404021c:	e037883a 	mov	sp,fp
 4040220:	dfc00117 	ldw	ra,4(sp)
 4040224:	df000017 	ldw	fp,0(sp)
 4040228:	dec00204 	addi	sp,sp,8
 404022c:	f800283a 	ret

Disassembly of section .text:

04040230 <_start>:

    /*
     * Now that the caches are initialized, set up the stack pointer and global pointer.
     * The values provided by the linker are assumed to be correctly aligned.
     */
    movhi sp, %hi(__alt_stack_pointer)
 4040230:	06c10034 	movhi	sp,1024
    ori sp, sp, %lo(__alt_stack_pointer)
 4040234:	dec00014 	ori	sp,sp,0
    movhi gp, %hi(_gp)
 4040238:	06800034 	movhi	gp,0
    ori gp, gp, %lo(_gp)
 404023c:	d6a79714 	ori	gp,gp,40540
 */
#ifndef ALT_SIM_OPTIMIZE
    /* Log that the BSS is about to be cleared. */
    ALT_LOG_PUTS(alt_log_msg_bss)

    movhi r2, %hi(__bss_start)
 4040240:	00800034 	movhi	r2,0
    ori r2, r2, %lo(__bss_start)
 4040244:	1087a914 	ori	r2,r2,7844

    movhi r3, %hi(__bss_end)
 4040248:	00c00034 	movhi	r3,0
    ori r3, r3, %lo(__bss_end)
 404024c:	18c80f14 	ori	r3,r3,8252

    beq r2, r3, 1f
 4040250:	10c00326 	beq	r2,r3,4040260 <_start+0x30>

0:
    stw zero, (r2)
 4040254:	10000015 	stw	zero,0(r2)
    addi r2, r2, 4
 4040258:	10800104 	addi	r2,r2,4
    bltu r2, r3, 0b
 404025c:	10fffd36 	bltu	r2,r3,4040254 <__flash_rwdata_start+0xfffef4ec>
     * section aren't defined until alt_load() has been called).
     */
    mov   et, zero
#endif

    call alt_load
 4040260:	404e5b40 	call	404e5b4 <alt_load>

    /* Log that alt_main is about to be called. */
    ALT_LOG_PUTS(alt_log_msg_alt_main)

    /* Call the C entry point. It should never return. */
    call alt_main
 4040264:	404e7500 	call	404e750 <alt_main>

04040268 <alt_after_alt_main>:

    /* Wait in infinite loop in case alt_main does return. */
alt_after_alt_main:
    br alt_after_alt_main
 4040268:	003fff06 	br	4040268 <__flash_rwdata_start+0xfffef500>

0404026c <SendCommand>:
#define SW  (*(volatile int*)0x4081080)
static int b=0x0c;
const int num[12] = {0x30,0x31,0x32,0x33,0x34,0x35,0x36,0x37,0x38,0x39,0x2e,0x56};
const int table[10] ={0x48,0x45,0x4c,0x4c,0x4f,0x57,0x4f,0x52,0x4c,0x44};
const int v[]={0x56,0x6f,0x6c,0x74,0x61,0x67,0x65,0x3a};
void SendCommand (alt_u8 cmd){
 404026c:	defffd04 	addi	sp,sp,-12
 4040270:	dfc00215 	stw	ra,8(sp)
 4040274:	df000115 	stw	fp,4(sp)
 4040278:	df000104 	addi	fp,sp,4
 404027c:	2005883a 	mov	r2,r4
 4040280:	e0bfff05 	stb	r2,-4(fp)
	IOWR_ALTERA_AVALON_PIO_DATA(GPIO_BASE,0x0100 | cmd);
 4040284:	e0bfff03 	ldbu	r2,-4(fp)
 4040288:	10c04014 	ori	r3,r2,256
 404028c:	00810234 	movhi	r2,1032
 4040290:	10841804 	addi	r2,r2,4192
 4040294:	10c00035 	stwio	r3,0(r2)
	delay_ms(40);
 4040298:	01000a04 	movi	r4,40
 404029c:	40406a80 	call	40406a8 <delay_ms>
	IOWR_ALTERA_AVALON_PIO_DATA(GPIO_BASE,0x0000 | cmd);
 40402a0:	e0ffff03 	ldbu	r3,-4(fp)
 40402a4:	00810234 	movhi	r2,1032
 40402a8:	10841804 	addi	r2,r2,4192
 40402ac:	10c00035 	stwio	r3,0(r2)
	delay_ms(40);
 40402b0:	01000a04 	movi	r4,40
 40402b4:	40406a80 	call	40406a8 <delay_ms>
	//IOWR_ALTERA_AVALON_PIO_DATA(GPIO_BASE,0x0100 | cmd);
	//delay_ms(50);
}
 40402b8:	0001883a 	nop
 40402bc:	e037883a 	mov	sp,fp
 40402c0:	dfc00117 	ldw	ra,4(sp)
 40402c4:	df000017 	ldw	fp,0(sp)
 40402c8:	dec00204 	addi	sp,sp,8
 40402cc:	f800283a 	ret

040402d0 <SendData>:
void SendData (alt_u8 data){
 40402d0:	defffd04 	addi	sp,sp,-12
 40402d4:	dfc00215 	stw	ra,8(sp)
 40402d8:	df000115 	stw	fp,4(sp)
 40402dc:	df000104 	addi	fp,sp,4
 40402e0:	2005883a 	mov	r2,r4
 40402e4:	e0bfff05 	stb	r2,-4(fp)
	IOWR_ALTERA_AVALON_PIO_DATA(GPIO_BASE,0x0500 | data);
 40402e8:	e0bfff03 	ldbu	r2,-4(fp)
 40402ec:	10c14014 	ori	r3,r2,1280
 40402f0:	00810234 	movhi	r2,1032
 40402f4:	10841804 	addi	r2,r2,4192
 40402f8:	10c00035 	stwio	r3,0(r2)
	delay_ms(40);
 40402fc:	01000a04 	movi	r4,40
 4040300:	40406a80 	call	40406a8 <delay_ms>
	IOWR_ALTERA_AVALON_PIO_DATA(GPIO_BASE,0x0400 | data);
 4040304:	e0bfff03 	ldbu	r2,-4(fp)
 4040308:	10c10014 	ori	r3,r2,1024
 404030c:	00810234 	movhi	r2,1032
 4040310:	10841804 	addi	r2,r2,4192
 4040314:	10c00035 	stwio	r3,0(r2)
	delay_ms(40);
 4040318:	01000a04 	movi	r4,40
 404031c:	40406a80 	call	40406a8 <delay_ms>
	//IOWR_ALTERA_AVALON_PIO_DATA(GPIO_BASE,0x0500 | data);
	//delay_ms(50);
}
 4040320:	0001883a 	nop
 4040324:	e037883a 	mov	sp,fp
 4040328:	dfc00117 	ldw	ra,4(sp)
 404032c:	df000017 	ldw	fp,0(sp)
 4040330:	dec00204 	addi	sp,sp,8
 4040334:	f800283a 	ret

04040338 <blink>:

alt_u32 blink(void* context){
 4040338:	defffd04 	addi	sp,sp,-12
 404033c:	dfc00215 	stw	ra,8(sp)
 4040340:	df000115 	stw	fp,4(sp)
 4040344:	df000104 	addi	fp,sp,4
 4040348:	e13fff15 	stw	r4,-4(fp)
static int i=1;
	if (IORD_ALTERA_AVALON_PIO_DATA(SW_BASE)==0x03){
 404034c:	00810234 	movhi	r2,1032
 4040350:	10842004 	addi	r2,r2,4224
 4040354:	10800037 	ldwio	r2,0(r2)
 4040358:	108000d8 	cmpnei	r2,r2,3
 404035c:	10000c1e 	bne	r2,zero,4040390 <blink+0x58>
		IOWR_ALTERA_AVALON_PIO_DATA(LEDR_BASE,i);
 4040360:	d0e00117 	ldw	r3,-32764(gp)
 4040364:	00810234 	movhi	r2,1032
 4040368:	10841c04 	addi	r2,r2,4208
 404036c:	10c00035 	stwio	r3,0(r2)
		i=i<<1;
 4040370:	d0a00117 	ldw	r2,-32764(gp)
 4040374:	1085883a 	add	r2,r2,r2
 4040378:	d0a00115 	stw	r2,-32764(gp)
		if(i==1024)
 404037c:	d0a00117 	ldw	r2,-32764(gp)
 4040380:	10810018 	cmpnei	r2,r2,1024
 4040384:	1000021e 	bne	r2,zero,4040390 <blink+0x58>
			i = 1;}
 4040388:	00800044 	movi	r2,1
 404038c:	d0a00115 	stw	r2,-32764(gp)
	if (IORD_ALTERA_AVALON_PIO_DATA(SW_BASE)==0x01){
 4040390:	00810234 	movhi	r2,1032
 4040394:	10842004 	addi	r2,r2,4224
 4040398:	10800037 	ldwio	r2,0(r2)
 404039c:	10800058 	cmpnei	r2,r2,1
 40403a0:	1000091e 	bne	r2,zero,40403c8 <blink+0x90>
		SendCommand(b);
 40403a4:	d0a00017 	ldw	r2,-32768(gp)
 40403a8:	10803fcc 	andi	r2,r2,255
 40403ac:	1009883a 	mov	r4,r2
 40403b0:	404026c0 	call	404026c <SendCommand>
		delay_ms(50);
 40403b4:	01000c84 	movi	r4,50
 40403b8:	40406a80 	call	40406a8 <delay_ms>
		b=b^0x04;}
 40403bc:	d0a00017 	ldw	r2,-32768(gp)
 40403c0:	1080011c 	xori	r2,r2,4
 40403c4:	d0a00015 	stw	r2,-32768(gp)
	if (IORD_ALTERA_AVALON_PIO_DATA(SW_BASE)==0x00){
 40403c8:	00810234 	movhi	r2,1032
 40403cc:	10842004 	addi	r2,r2,4224
 40403d0:	10800037 	ldwio	r2,0(r2)
 40403d4:	1000061e 	bne	r2,zero,40403f0 <blink+0xb8>
		IOWR_ALTERA_AVALON_PIO_DATA(LEDR_BASE,0);
 40403d8:	0007883a 	mov	r3,zero
 40403dc:	00810234 	movhi	r2,1032
 40403e0:	10841c04 	addi	r2,r2,4208
 40403e4:	10c00035 	stwio	r3,0(r2)
		SendCommand(0x08);
 40403e8:	01000204 	movi	r4,8
 40403ec:	404026c0 	call	404026c <SendCommand>
 * Obtain the system clock rate in ticks/s. 
 */

static ALT_INLINE alt_u32 ALT_ALWAYS_INLINE alt_ticks_per_second (void)
{
  return _alt_tick_rate;
 40403f0:	d0a01c17 	ldw	r2,-32656(gp)
	}
	return 0.5*alt_ticks_per_second();
 40403f4:	1009883a 	mov	r4,r2
 40403f8:	40431e40 	call	40431e4 <__floatunsidf>
 40403fc:	1011883a 	mov	r8,r2
 4040400:	1813883a 	mov	r9,r3
 4040404:	000d883a 	mov	r6,zero
 4040408:	01cff834 	movhi	r7,16352
 404040c:	4009883a 	mov	r4,r8
 4040410:	480b883a 	mov	r5,r9
 4040414:	4041f200 	call	4041f20 <__muldf3>
 4040418:	1009883a 	mov	r4,r2
 404041c:	180b883a 	mov	r5,r3
 4040420:	2005883a 	mov	r2,r4
 4040424:	2807883a 	mov	r3,r5
 4040428:	1009883a 	mov	r4,r2
 404042c:	180b883a 	mov	r5,r3
 4040430:	4040a800 	call	4040a80 <__fixunsdfsi>
}
 4040434:	e037883a 	mov	sp,fp
 4040438:	dfc00117 	ldw	ra,4(sp)
 404043c:	df000017 	ldw	fp,0(sp)
 4040440:	dec00204 	addi	sp,sp,8
 4040444:	f800283a 	ret

04040448 <adc>:


alt_u32 adc(void* context){
 4040448:	defff604 	addi	sp,sp,-40
 404044c:	dfc00915 	stw	ra,36(sp)
 4040450:	df000815 	stw	fp,32(sp)
 4040454:	df000804 	addi	fp,sp,32
 4040458:	e13fff15 	stw	r4,-4(fp)
	    int c=0, d=0, e=0, f=0;
 404045c:	e03ffb15 	stw	zero,-20(fp)
 4040460:	e03ffc15 	stw	zero,-16(fp)
 4040464:	e03ffd15 	stw	zero,-12(fp)
 4040468:	e03ffe15 	stw	zero,-8(fp)
		int *p=&ADC;
 404046c:	00810234 	movhi	r2,1032
 4040470:	10840004 	addi	r2,r2,4096
 4040474:	e0bff915 	stw	r2,-28(fp)
		if (SW==0x02){
 4040478:	00810234 	movhi	r2,1032
 404047c:	10842004 	addi	r2,r2,4224
 4040480:	10800017 	ldw	r2,0(r2)
 4040484:	10800098 	cmpnei	r2,r2,2
 4040488:	1000651e 	bne	r2,zero,4040620 <adc+0x1d8>
			SendCommand(0x0c);
 404048c:	01000304 	movi	r4,12
 4040490:	404026c0 	call	404026c <SendCommand>
			p=&ADC;
 4040494:	00810234 	movhi	r2,1032
 4040498:	10840004 	addi	r2,r2,4096
 404049c:	e0bff915 	stw	r2,-28(fp)
			int t=(5*(*p)*1000)/pow(2,12);
 40404a0:	e0bff917 	ldw	r2,-28(fp)
 40404a4:	10800017 	ldw	r2,0(r2)
 40404a8:	0144e204 	movi	r5,5000
 40404ac:	1009883a 	mov	r4,r2
 40404b0:	4040ca80 	call	4040ca8 <__mulsi3>
 40404b4:	1009883a 	mov	r4,r2
 40404b8:	40431080 	call	4043108 <__floatsidf>
 40404bc:	1011883a 	mov	r8,r2
 40404c0:	1813883a 	mov	r9,r3
 40404c4:	000d883a 	mov	r6,zero
 40404c8:	01d02c34 	movhi	r7,16560
 40404cc:	4009883a 	mov	r4,r8
 40404d0:	480b883a 	mov	r5,r9
 40404d4:	40414740 	call	4041474 <__divdf3>
 40404d8:	1009883a 	mov	r4,r2
 40404dc:	180b883a 	mov	r5,r3
 40404e0:	2005883a 	mov	r2,r4
 40404e4:	2807883a 	mov	r3,r5
 40404e8:	1009883a 	mov	r4,r2
 40404ec:	180b883a 	mov	r5,r3
 40404f0:	40430880 	call	4043088 <__fixdfsi>
 40404f4:	e0bffa15 	stw	r2,-24(fp)
			printf("%d ",t);
 40404f8:	e17ffa17 	ldw	r5,-24(fp)
 40404fc:	01000034 	movhi	r4,0
 4040500:	21001e04 	addi	r4,r4,120
 4040504:	40433200 	call	4043320 <printf>
			if (t>3000)IOWR_ALTERA_AVALON_PIO_DATA(LEDR_BASE,1023);
 4040508:	e0bffa17 	ldw	r2,-24(fp)
 404050c:	1082ee50 	cmplti	r2,r2,3001
 4040510:	1000051e 	bne	r2,zero,4040528 <adc+0xe0>
 4040514:	00c0ffc4 	movi	r3,1023
 4040518:	00810234 	movhi	r2,1032
 404051c:	10841c04 	addi	r2,r2,4208
 4040520:	10c00035 	stwio	r3,0(r2)
 4040524:	00000406 	br	4040538 <adc+0xf0>
			else IOWR_ALTERA_AVALON_PIO_DATA(LEDR_BASE,0);
 4040528:	0007883a 	mov	r3,zero
 404052c:	00810234 	movhi	r2,1032
 4040530:	10841c04 	addi	r2,r2,4208
 4040534:	10c00035 	stwio	r3,0(r2)
			//delay_ms(200);
			division(t,&c,&d,&e,&f);
 4040538:	e17ffd04 	addi	r5,fp,-12
 404053c:	e13ffc04 	addi	r4,fp,-16
 4040540:	e0fffb04 	addi	r3,fp,-20
 4040544:	e0bffe04 	addi	r2,fp,-8
 4040548:	d8800015 	stw	r2,0(sp)
 404054c:	280f883a 	mov	r7,r5
 4040550:	200d883a 	mov	r6,r4
 4040554:	180b883a 	mov	r5,r3
 4040558:	e13ffa17 	ldw	r4,-24(fp)
 404055c:	40407b80 	call	40407b8 <division>
			SendCommand(0xc9);
 4040560:	01003244 	movi	r4,201
 4040564:	404026c0 	call	404026c <SendCommand>
			SendData(num[c]);
 4040568:	e0fffb17 	ldw	r3,-20(fp)
 404056c:	00800034 	movhi	r2,0
 4040570:	10800004 	addi	r2,r2,0
 4040574:	18c7883a 	add	r3,r3,r3
 4040578:	18c7883a 	add	r3,r3,r3
 404057c:	10c5883a 	add	r2,r2,r3
 4040580:	10800017 	ldw	r2,0(r2)
 4040584:	10803fcc 	andi	r2,r2,255
 4040588:	1009883a 	mov	r4,r2
 404058c:	40402d00 	call	40402d0 <SendData>
			SendData(num[10]);
 4040590:	00800b84 	movi	r2,46
 4040594:	10803fcc 	andi	r2,r2,255
 4040598:	1009883a 	mov	r4,r2
 404059c:	40402d00 	call	40402d0 <SendData>
			SendData(num[d]);
 40405a0:	e0fffc17 	ldw	r3,-16(fp)
 40405a4:	00800034 	movhi	r2,0
 40405a8:	10800004 	addi	r2,r2,0
 40405ac:	18c7883a 	add	r3,r3,r3
 40405b0:	18c7883a 	add	r3,r3,r3
 40405b4:	10c5883a 	add	r2,r2,r3
 40405b8:	10800017 	ldw	r2,0(r2)
 40405bc:	10803fcc 	andi	r2,r2,255
 40405c0:	1009883a 	mov	r4,r2
 40405c4:	40402d00 	call	40402d0 <SendData>
			SendData(num[e]);
 40405c8:	e0fffd17 	ldw	r3,-12(fp)
 40405cc:	00800034 	movhi	r2,0
 40405d0:	10800004 	addi	r2,r2,0
 40405d4:	18c7883a 	add	r3,r3,r3
 40405d8:	18c7883a 	add	r3,r3,r3
 40405dc:	10c5883a 	add	r2,r2,r3
 40405e0:	10800017 	ldw	r2,0(r2)
 40405e4:	10803fcc 	andi	r2,r2,255
 40405e8:	1009883a 	mov	r4,r2
 40405ec:	40402d00 	call	40402d0 <SendData>
			SendData(num[f]);
 40405f0:	e0fffe17 	ldw	r3,-8(fp)
 40405f4:	00800034 	movhi	r2,0
 40405f8:	10800004 	addi	r2,r2,0
 40405fc:	18c7883a 	add	r3,r3,r3
 4040600:	18c7883a 	add	r3,r3,r3
 4040604:	10c5883a 	add	r2,r2,r3
 4040608:	10800017 	ldw	r2,0(r2)
 404060c:	10803fcc 	andi	r2,r2,255
 4040610:	1009883a 	mov	r4,r2
 4040614:	40402d00 	call	40402d0 <SendData>
			delay_ms(50);
 4040618:	01000c84 	movi	r4,50
 404061c:	40406a80 	call	40406a8 <delay_ms>
		}
		if (IORD_ALTERA_AVALON_PIO_DATA(SW_BASE)==0x00){
 4040620:	00810234 	movhi	r2,1032
 4040624:	10842004 	addi	r2,r2,4224
 4040628:	10800037 	ldwio	r2,0(r2)
 404062c:	1000061e 	bne	r2,zero,4040648 <adc+0x200>
				IOWR_ALTERA_AVALON_PIO_DATA(LEDR_BASE,0);
 4040630:	0007883a 	mov	r3,zero
 4040634:	00810234 	movhi	r2,1032
 4040638:	10841c04 	addi	r2,r2,4208
 404063c:	10c00035 	stwio	r3,0(r2)
				SendCommand(0x08);
 4040640:	01000204 	movi	r4,8
 4040644:	404026c0 	call	404026c <SendCommand>
 4040648:	d0a01c17 	ldw	r2,-32656(gp)
		}
return 0.01*alt_ticks_per_second();
 404064c:	1009883a 	mov	r4,r2
 4040650:	40431e40 	call	40431e4 <__floatunsidf>
 4040654:	1011883a 	mov	r8,r2
 4040658:	1813883a 	mov	r9,r3
 404065c:	0191ebb4 	movhi	r6,18350
 4040660:	31851ec4 	addi	r6,r6,5243
 4040664:	01cfe134 	movhi	r7,16260
 4040668:	39deb844 	addi	r7,r7,31457
 404066c:	4009883a 	mov	r4,r8
 4040670:	480b883a 	mov	r5,r9
 4040674:	4041f200 	call	4041f20 <__muldf3>
 4040678:	1009883a 	mov	r4,r2
 404067c:	180b883a 	mov	r5,r3
 4040680:	2005883a 	mov	r2,r4
 4040684:	2807883a 	mov	r3,r5
 4040688:	1009883a 	mov	r4,r2
 404068c:	180b883a 	mov	r5,r3
 4040690:	4040a800 	call	4040a80 <__fixunsdfsi>
}
 4040694:	e037883a 	mov	sp,fp
 4040698:	dfc00117 	ldw	ra,4(sp)
 404069c:	df000017 	ldw	fp,0(sp)
 40406a0:	dec00204 	addi	sp,sp,8
 40406a4:	f800283a 	ret

040406a8 <delay_ms>:

void delay_ms(int a)
{
 40406a8:	defffa04 	addi	sp,sp,-24
 40406ac:	dfc00515 	stw	ra,20(sp)
 40406b0:	df000415 	stw	fp,16(sp)
 40406b4:	df000404 	addi	fp,sp,16
 40406b8:	e13fff15 	stw	r4,-4(fp)
	float t1,t2;
	int b = (a*0.001*50000000);
 40406bc:	e13fff17 	ldw	r4,-4(fp)
 40406c0:	40431080 	call	4043108 <__floatsidf>
 40406c4:	1011883a 	mov	r8,r2
 40406c8:	1813883a 	mov	r9,r3
 40406cc:	01b4bcb4 	movhi	r6,54002
 40406d0:	31aa7f04 	addi	r6,r6,-22020
 40406d4:	01cfd434 	movhi	r7,16208
 40406d8:	39d89344 	addi	r7,r7,25165
 40406dc:	4009883a 	mov	r4,r8
 40406e0:	480b883a 	mov	r5,r9
 40406e4:	4041f200 	call	4041f20 <__muldf3>
 40406e8:	1009883a 	mov	r4,r2
 40406ec:	180b883a 	mov	r5,r3
 40406f0:	2005883a 	mov	r2,r4
 40406f4:	2807883a 	mov	r3,r5
 40406f8:	000d883a 	mov	r6,zero
 40406fc:	01d06234 	movhi	r7,16776
 4040700:	39f5e104 	addi	r7,r7,-10364
 4040704:	1009883a 	mov	r4,r2
 4040708:	180b883a 	mov	r5,r3
 404070c:	4041f200 	call	4041f20 <__muldf3>
 4040710:	1009883a 	mov	r4,r2
 4040714:	180b883a 	mov	r5,r3
 4040718:	2005883a 	mov	r2,r4
 404071c:	2807883a 	mov	r3,r5
 4040720:	1009883a 	mov	r4,r2
 4040724:	180b883a 	mov	r5,r3
 4040728:	40430880 	call	4043088 <__fixdfsi>
 404072c:	e0bffd15 	stw	r2,-12(fp)
	t1 = alt_timestamp_start();
 4040730:	404f9b80 	call	404f9b8 <alt_timestamp_start>
 4040734:	1009883a 	mov	r4,r2
 4040738:	40412600 	call	4041260 <__floatsisf>
 404073c:	1007883a 	mov	r3,r2
 4040740:	e0fffc15 	stw	r3,-16(fp)
	t1 = alt_timestamp();
 4040744:	404fa300 	call	404fa30 <alt_timestamp>
 4040748:	1009883a 	mov	r4,r2
 404074c:	40413840 	call	4041384 <__floatunsisf>
 4040750:	1007883a 	mov	r3,r2
 4040754:	e0fffc15 	stw	r3,-16(fp)

	t2 = (t1 + b) ;
 4040758:	e13ffd17 	ldw	r4,-12(fp)
 404075c:	40412600 	call	4041260 <__floatsisf>
 4040760:	1007883a 	mov	r3,r2
 4040764:	e17ffc17 	ldw	r5,-16(fp)
 4040768:	1809883a 	mov	r4,r3
 404076c:	4040cd00 	call	4040cd0 <__addsf3>
 4040770:	1007883a 	mov	r3,r2
 4040774:	e0fffe15 	stw	r3,-8(fp)
	 while(t1<t2)
 4040778:	00000506 	br	4040790 <delay_ms+0xe8>
	 {
	    t1 = (alt_timestamp());
 404077c:	404fa300 	call	404fa30 <alt_timestamp>
 4040780:	1009883a 	mov	r4,r2
 4040784:	40413840 	call	4041384 <__floatunsisf>
 4040788:	1007883a 	mov	r3,r2
 404078c:	e0fffc15 	stw	r3,-16(fp)
	int b = (a*0.001*50000000);
	t1 = alt_timestamp_start();
	t1 = alt_timestamp();

	t2 = (t1 + b) ;
	 while(t1<t2)
 4040790:	e17ffe17 	ldw	r5,-8(fp)
 4040794:	e13ffc17 	ldw	r4,-16(fp)
 4040798:	40411980 	call	4041198 <__lesf2>
 404079c:	103ff716 	blt	r2,zero,404077c <__flash_rwdata_start+0xfffefa14>
	 {
	    t1 = (alt_timestamp());
	 }
}
 40407a0:	0001883a 	nop
 40407a4:	e037883a 	mov	sp,fp
 40407a8:	dfc00117 	ldw	ra,4(sp)
 40407ac:	df000017 	ldw	fp,0(sp)
 40407b0:	dec00204 	addi	sp,sp,8
 40407b4:	f800283a 	ret

040407b8 <division>:
int division(int count, int *c, int *d, int *e, int *f)
{
 40407b8:	defff904 	addi	sp,sp,-28
 40407bc:	dfc00615 	stw	ra,24(sp)
 40407c0:	df000515 	stw	fp,20(sp)
 40407c4:	dc000415 	stw	r16,16(sp)
 40407c8:	df000504 	addi	fp,sp,20
 40407cc:	e13ffb15 	stw	r4,-20(fp)
 40407d0:	e17ffc15 	stw	r5,-16(fp)
 40407d4:	e1bffd15 	stw	r6,-12(fp)
 40407d8:	e1fffe15 	stw	r7,-8(fp)
		    *c = count / 1000;
 40407dc:	e0bffb17 	ldw	r2,-20(fp)
 40407e0:	0140fa04 	movi	r5,1000
 40407e4:	1009883a 	mov	r4,r2
 40407e8:	4040af40 	call	4040af4 <__divsi3>
 40407ec:	1007883a 	mov	r3,r2
 40407f0:	e0bffc17 	ldw	r2,-16(fp)
 40407f4:	10c00015 	stw	r3,0(r2)
			*d = (count - 1000 * *c)/100;
 40407f8:	e0bffc17 	ldw	r2,-16(fp)
 40407fc:	10800017 	ldw	r2,0(r2)
 4040800:	017f0604 	movi	r5,-1000
 4040804:	1009883a 	mov	r4,r2
 4040808:	4040ca80 	call	4040ca8 <__mulsi3>
 404080c:	1007883a 	mov	r3,r2
 4040810:	e0bffb17 	ldw	r2,-20(fp)
 4040814:	1885883a 	add	r2,r3,r2
 4040818:	01401904 	movi	r5,100
 404081c:	1009883a 	mov	r4,r2
 4040820:	4040af40 	call	4040af4 <__divsi3>
 4040824:	1007883a 	mov	r3,r2
 4040828:	e0bffd17 	ldw	r2,-12(fp)
 404082c:	10c00015 	stw	r3,0(r2)
			*e = (count - *c * 1000 - *d * 100) / 10;
 4040830:	e0bffc17 	ldw	r2,-16(fp)
 4040834:	10800017 	ldw	r2,0(r2)
 4040838:	017f0604 	movi	r5,-1000
 404083c:	1009883a 	mov	r4,r2
 4040840:	4040ca80 	call	4040ca8 <__mulsi3>
 4040844:	1007883a 	mov	r3,r2
 4040848:	e0bffb17 	ldw	r2,-20(fp)
 404084c:	18a1883a 	add	r16,r3,r2
 4040850:	e0bffd17 	ldw	r2,-12(fp)
 4040854:	10800017 	ldw	r2,0(r2)
 4040858:	017fe704 	movi	r5,-100
 404085c:	1009883a 	mov	r4,r2
 4040860:	4040ca80 	call	4040ca8 <__mulsi3>
 4040864:	8085883a 	add	r2,r16,r2
 4040868:	01400284 	movi	r5,10
 404086c:	1009883a 	mov	r4,r2
 4040870:	4040af40 	call	4040af4 <__divsi3>
 4040874:	1007883a 	mov	r3,r2
 4040878:	e0bffe17 	ldw	r2,-8(fp)
 404087c:	10c00015 	stw	r3,0(r2)
			*f = (count - *c * 1000 - *d * 100 - *e * 10);
 4040880:	e0bffc17 	ldw	r2,-16(fp)
 4040884:	10800017 	ldw	r2,0(r2)
 4040888:	017f0604 	movi	r5,-1000
 404088c:	1009883a 	mov	r4,r2
 4040890:	4040ca80 	call	4040ca8 <__mulsi3>
 4040894:	1007883a 	mov	r3,r2
 4040898:	e0bffb17 	ldw	r2,-20(fp)
 404089c:	18a1883a 	add	r16,r3,r2
 40408a0:	e0bffd17 	ldw	r2,-12(fp)
 40408a4:	10800017 	ldw	r2,0(r2)
 40408a8:	017fe704 	movi	r5,-100
 40408ac:	1009883a 	mov	r4,r2
 40408b0:	4040ca80 	call	4040ca8 <__mulsi3>
 40408b4:	80a1883a 	add	r16,r16,r2
 40408b8:	e0bffe17 	ldw	r2,-8(fp)
 40408bc:	10800017 	ldw	r2,0(r2)
 40408c0:	017ffd84 	movi	r5,-10
 40408c4:	1009883a 	mov	r4,r2
 40408c8:	4040ca80 	call	4040ca8 <__mulsi3>
 40408cc:	8087883a 	add	r3,r16,r2
 40408d0:	e0800217 	ldw	r2,8(fp)
 40408d4:	10c00015 	stw	r3,0(r2)
}
 40408d8:	0001883a 	nop
 40408dc:	e6ffff04 	addi	sp,fp,-4
 40408e0:	dfc00217 	ldw	ra,8(sp)
 40408e4:	df000117 	ldw	fp,4(sp)
 40408e8:	dc000017 	ldw	r16,0(sp)
 40408ec:	dec00304 	addi	sp,sp,12
 40408f0:	f800283a 	ret

040408f4 <main>:
int main()
{
 40408f4:	defffc04 	addi	sp,sp,-16
 40408f8:	dfc00315 	stw	ra,12(sp)
 40408fc:	df000215 	stw	fp,8(sp)
 4040900:	df000204 	addi	fp,sp,8

	SendCommand(0x38); // 8 bit, 2 line 5x7 dots
 4040904:	01000e04 	movi	r4,56
 4040908:	404026c0 	call	404026c <SendCommand>
	SendCommand(0x000F);  // display on cursor blinking
 404090c:	010003c4 	movi	r4,15
 4040910:	404026c0 	call	404026c <SendCommand>
	SendCommand(0x0001);   // clear display (also clear DDRAM content
 4040914:	01000044 	movi	r4,1
 4040918:	404026c0 	call	404026c <SendCommand>
	SendCommand(0x0006);   // entry mode
 404091c:	01000184 	movi	r4,6
 4040920:	404026c0 	call	404026c <SendCommand>
	SendCommand(0x83);  //line 1 start from position 3
 4040924:	010020c4 	movi	r4,131
 4040928:	404026c0 	call	404026c <SendCommand>
	for(int i=0;i<10;i++){
 404092c:	e03ffe15 	stw	zero,-8(fp)
 4040930:	00000d06 	br	4040968 <main+0x74>
		SendData(table[i]);
 4040934:	00800034 	movhi	r2,0
 4040938:	10800c04 	addi	r2,r2,48
 404093c:	e0fffe17 	ldw	r3,-8(fp)
 4040940:	18c7883a 	add	r3,r3,r3
 4040944:	18c7883a 	add	r3,r3,r3
 4040948:	10c5883a 	add	r2,r2,r3
 404094c:	10800017 	ldw	r2,0(r2)
 4040950:	10803fcc 	andi	r2,r2,255
 4040954:	1009883a 	mov	r4,r2
 4040958:	40402d00 	call	40402d0 <SendData>
	SendCommand(0x38); // 8 bit, 2 line 5x7 dots
	SendCommand(0x000F);  // display on cursor blinking
	SendCommand(0x0001);   // clear display (also clear DDRAM content
	SendCommand(0x0006);   // entry mode
	SendCommand(0x83);  //line 1 start from position 3
	for(int i=0;i<10;i++){
 404095c:	e0bffe17 	ldw	r2,-8(fp)
 4040960:	10800044 	addi	r2,r2,1
 4040964:	e0bffe15 	stw	r2,-8(fp)
 4040968:	e0bffe17 	ldw	r2,-8(fp)
 404096c:	10800290 	cmplti	r2,r2,10
 4040970:	103ff01e 	bne	r2,zero,4040934 <__flash_rwdata_start+0xfffefbcc>
		SendData(table[i]);
	}
	SendCommand(0xc0);
 4040974:	01003004 	movi	r4,192
 4040978:	404026c0 	call	404026c <SendCommand>
	for(int i=0;i<8;i++){
 404097c:	e03fff15 	stw	zero,-4(fp)
 4040980:	00000d06 	br	40409b8 <main+0xc4>
	    SendData(v[i]);
 4040984:	00800034 	movhi	r2,0
 4040988:	10801604 	addi	r2,r2,88
 404098c:	e0ffff17 	ldw	r3,-4(fp)
 4040990:	18c7883a 	add	r3,r3,r3
 4040994:	18c7883a 	add	r3,r3,r3
 4040998:	10c5883a 	add	r2,r2,r3
 404099c:	10800017 	ldw	r2,0(r2)
 40409a0:	10803fcc 	andi	r2,r2,255
 40409a4:	1009883a 	mov	r4,r2
 40409a8:	40402d00 	call	40402d0 <SendData>
	SendCommand(0x83);  //line 1 start from position 3
	for(int i=0;i<10;i++){
		SendData(table[i]);
	}
	SendCommand(0xc0);
	for(int i=0;i<8;i++){
 40409ac:	e0bfff17 	ldw	r2,-4(fp)
 40409b0:	10800044 	addi	r2,r2,1
 40409b4:	e0bfff15 	stw	r2,-4(fp)
 40409b8:	e0bfff17 	ldw	r2,-4(fp)
 40409bc:	10800210 	cmplti	r2,r2,8
 40409c0:	103ff01e 	bne	r2,zero,4040984 <__flash_rwdata_start+0xfffefc1c>
	    SendData(v[i]);
	}
    SendCommand(0xce);
 40409c4:	01003384 	movi	r4,206
 40409c8:	404026c0 	call	404026c <SendCommand>
    SendData(num[11]);
 40409cc:	00801584 	movi	r2,86
 40409d0:	10803fcc 	andi	r2,r2,255
 40409d4:	1009883a 	mov	r4,r2
 40409d8:	40402d00 	call	40402d0 <SendData>
 40409dc:	d0a01c17 	ldw	r2,-32656(gp)
	static alt_alarm alarm1;
	alt_alarm_start(&alarm1,alt_ticks_per_second()/2,blink, NULL);
 40409e0:	1004d07a 	srli	r2,r2,1
 40409e4:	000f883a 	mov	r7,zero
 40409e8:	01810134 	movhi	r6,1028
 40409ec:	3180ce04 	addi	r6,r6,824
 40409f0:	100b883a 	mov	r5,r2
 40409f4:	01000034 	movhi	r4,0
 40409f8:	2107b904 	addi	r4,r4,7908
 40409fc:	404e1040 	call	404e104 <alt_alarm_start>
 4040a00:	d0a01c17 	ldw	r2,-32656(gp)
    static alt_alarm alarm2;
    alt_alarm_start(&alarm2,0.01*alt_ticks_per_second(),adc, NULL);
 4040a04:	1009883a 	mov	r4,r2
 4040a08:	40431e40 	call	40431e4 <__floatunsidf>
 4040a0c:	1011883a 	mov	r8,r2
 4040a10:	1813883a 	mov	r9,r3
 4040a14:	0191ebb4 	movhi	r6,18350
 4040a18:	31851ec4 	addi	r6,r6,5243
 4040a1c:	01cfe134 	movhi	r7,16260
 4040a20:	39deb844 	addi	r7,r7,31457
 4040a24:	4009883a 	mov	r4,r8
 4040a28:	480b883a 	mov	r5,r9
 4040a2c:	4041f200 	call	4041f20 <__muldf3>
 4040a30:	1009883a 	mov	r4,r2
 4040a34:	180b883a 	mov	r5,r3
 4040a38:	2005883a 	mov	r2,r4
 4040a3c:	2807883a 	mov	r3,r5
 4040a40:	1009883a 	mov	r4,r2
 4040a44:	180b883a 	mov	r5,r3
 4040a48:	4040a800 	call	4040a80 <__fixunsdfsi>
 4040a4c:	000f883a 	mov	r7,zero
 4040a50:	01810134 	movhi	r6,1028
 4040a54:	31811204 	addi	r6,r6,1096
 4040a58:	100b883a 	mov	r5,r2
 4040a5c:	01000034 	movhi	r4,0
 4040a60:	2107bf04 	addi	r4,r4,7932
 4040a64:	404e1040 	call	404e104 <alt_alarm_start>
 4040a68:	0005883a 	mov	r2,zero

}
 4040a6c:	e037883a 	mov	sp,fp
 4040a70:	dfc00117 	ldw	ra,4(sp)
 4040a74:	df000017 	ldw	fp,0(sp)
 4040a78:	dec00204 	addi	sp,sp,8
 4040a7c:	f800283a 	ret

04040a80 <__fixunsdfsi>:
 4040a80:	defffd04 	addi	sp,sp,-12
 4040a84:	000d883a 	mov	r6,zero
 4040a88:	01d07834 	movhi	r7,16864
 4040a8c:	dc400115 	stw	r17,4(sp)
 4040a90:	dc000015 	stw	r16,0(sp)
 4040a94:	dfc00215 	stw	ra,8(sp)
 4040a98:	2023883a 	mov	r17,r4
 4040a9c:	2821883a 	mov	r16,r5
 4040aa0:	4041e440 	call	4041e44 <__gedf2>
 4040aa4:	1000080e 	bge	r2,zero,4040ac8 <__fixunsdfsi+0x48>
 4040aa8:	8809883a 	mov	r4,r17
 4040aac:	800b883a 	mov	r5,r16
 4040ab0:	40430880 	call	4043088 <__fixdfsi>
 4040ab4:	dfc00217 	ldw	ra,8(sp)
 4040ab8:	dc400117 	ldw	r17,4(sp)
 4040abc:	dc000017 	ldw	r16,0(sp)
 4040ac0:	dec00304 	addi	sp,sp,12
 4040ac4:	f800283a 	ret
 4040ac8:	000d883a 	mov	r6,zero
 4040acc:	01d07834 	movhi	r7,16864
 4040ad0:	8809883a 	mov	r4,r17
 4040ad4:	800b883a 	mov	r5,r16
 4040ad8:	404278c0 	call	404278c <__subdf3>
 4040adc:	180b883a 	mov	r5,r3
 4040ae0:	1009883a 	mov	r4,r2
 4040ae4:	40430880 	call	4043088 <__fixdfsi>
 4040ae8:	00e00034 	movhi	r3,32768
 4040aec:	10c5883a 	add	r2,r2,r3
 4040af0:	003ff006 	br	4040ab4 <__flash_rwdata_start+0xfffefd4c>

04040af4 <__divsi3>:
 4040af4:	20001b16 	blt	r4,zero,4040b64 <__divsi3+0x70>
 4040af8:	000f883a 	mov	r7,zero
 4040afc:	28001616 	blt	r5,zero,4040b58 <__divsi3+0x64>
 4040b00:	200d883a 	mov	r6,r4
 4040b04:	29001a2e 	bgeu	r5,r4,4040b70 <__divsi3+0x7c>
 4040b08:	00800804 	movi	r2,32
 4040b0c:	00c00044 	movi	r3,1
 4040b10:	00000106 	br	4040b18 <__divsi3+0x24>
 4040b14:	10000d26 	beq	r2,zero,4040b4c <__divsi3+0x58>
 4040b18:	294b883a 	add	r5,r5,r5
 4040b1c:	10bfffc4 	addi	r2,r2,-1
 4040b20:	18c7883a 	add	r3,r3,r3
 4040b24:	293ffb36 	bltu	r5,r4,4040b14 <__flash_rwdata_start+0xfffefdac>
 4040b28:	0005883a 	mov	r2,zero
 4040b2c:	18000726 	beq	r3,zero,4040b4c <__divsi3+0x58>
 4040b30:	0005883a 	mov	r2,zero
 4040b34:	31400236 	bltu	r6,r5,4040b40 <__divsi3+0x4c>
 4040b38:	314dc83a 	sub	r6,r6,r5
 4040b3c:	10c4b03a 	or	r2,r2,r3
 4040b40:	1806d07a 	srli	r3,r3,1
 4040b44:	280ad07a 	srli	r5,r5,1
 4040b48:	183ffa1e 	bne	r3,zero,4040b34 <__flash_rwdata_start+0xfffefdcc>
 4040b4c:	38000126 	beq	r7,zero,4040b54 <__divsi3+0x60>
 4040b50:	0085c83a 	sub	r2,zero,r2
 4040b54:	f800283a 	ret
 4040b58:	014bc83a 	sub	r5,zero,r5
 4040b5c:	39c0005c 	xori	r7,r7,1
 4040b60:	003fe706 	br	4040b00 <__flash_rwdata_start+0xfffefd98>
 4040b64:	0109c83a 	sub	r4,zero,r4
 4040b68:	01c00044 	movi	r7,1
 4040b6c:	003fe306 	br	4040afc <__flash_rwdata_start+0xfffefd94>
 4040b70:	00c00044 	movi	r3,1
 4040b74:	003fee06 	br	4040b30 <__flash_rwdata_start+0xfffefdc8>

04040b78 <__modsi3>:
 4040b78:	20001716 	blt	r4,zero,4040bd8 <__modsi3+0x60>
 4040b7c:	000f883a 	mov	r7,zero
 4040b80:	2005883a 	mov	r2,r4
 4040b84:	28001216 	blt	r5,zero,4040bd0 <__modsi3+0x58>
 4040b88:	2900162e 	bgeu	r5,r4,4040be4 <__modsi3+0x6c>
 4040b8c:	01800804 	movi	r6,32
 4040b90:	00c00044 	movi	r3,1
 4040b94:	00000106 	br	4040b9c <__modsi3+0x24>
 4040b98:	30000a26 	beq	r6,zero,4040bc4 <__modsi3+0x4c>
 4040b9c:	294b883a 	add	r5,r5,r5
 4040ba0:	31bfffc4 	addi	r6,r6,-1
 4040ba4:	18c7883a 	add	r3,r3,r3
 4040ba8:	293ffb36 	bltu	r5,r4,4040b98 <__flash_rwdata_start+0xfffefe30>
 4040bac:	18000526 	beq	r3,zero,4040bc4 <__modsi3+0x4c>
 4040bb0:	1806d07a 	srli	r3,r3,1
 4040bb4:	11400136 	bltu	r2,r5,4040bbc <__modsi3+0x44>
 4040bb8:	1145c83a 	sub	r2,r2,r5
 4040bbc:	280ad07a 	srli	r5,r5,1
 4040bc0:	183ffb1e 	bne	r3,zero,4040bb0 <__flash_rwdata_start+0xfffefe48>
 4040bc4:	38000126 	beq	r7,zero,4040bcc <__modsi3+0x54>
 4040bc8:	0085c83a 	sub	r2,zero,r2
 4040bcc:	f800283a 	ret
 4040bd0:	014bc83a 	sub	r5,zero,r5
 4040bd4:	003fec06 	br	4040b88 <__flash_rwdata_start+0xfffefe20>
 4040bd8:	0109c83a 	sub	r4,zero,r4
 4040bdc:	01c00044 	movi	r7,1
 4040be0:	003fe706 	br	4040b80 <__flash_rwdata_start+0xfffefe18>
 4040be4:	00c00044 	movi	r3,1
 4040be8:	003ff106 	br	4040bb0 <__flash_rwdata_start+0xfffefe48>

04040bec <__udivsi3>:
 4040bec:	200d883a 	mov	r6,r4
 4040bf0:	2900152e 	bgeu	r5,r4,4040c48 <__udivsi3+0x5c>
 4040bf4:	28001416 	blt	r5,zero,4040c48 <__udivsi3+0x5c>
 4040bf8:	00800804 	movi	r2,32
 4040bfc:	00c00044 	movi	r3,1
 4040c00:	00000206 	br	4040c0c <__udivsi3+0x20>
 4040c04:	10000e26 	beq	r2,zero,4040c40 <__udivsi3+0x54>
 4040c08:	28000516 	blt	r5,zero,4040c20 <__udivsi3+0x34>
 4040c0c:	294b883a 	add	r5,r5,r5
 4040c10:	10bfffc4 	addi	r2,r2,-1
 4040c14:	18c7883a 	add	r3,r3,r3
 4040c18:	293ffa36 	bltu	r5,r4,4040c04 <__flash_rwdata_start+0xfffefe9c>
 4040c1c:	18000826 	beq	r3,zero,4040c40 <__udivsi3+0x54>
 4040c20:	0005883a 	mov	r2,zero
 4040c24:	31400236 	bltu	r6,r5,4040c30 <__udivsi3+0x44>
 4040c28:	314dc83a 	sub	r6,r6,r5
 4040c2c:	10c4b03a 	or	r2,r2,r3
 4040c30:	1806d07a 	srli	r3,r3,1
 4040c34:	280ad07a 	srli	r5,r5,1
 4040c38:	183ffa1e 	bne	r3,zero,4040c24 <__flash_rwdata_start+0xfffefebc>
 4040c3c:	f800283a 	ret
 4040c40:	0005883a 	mov	r2,zero
 4040c44:	f800283a 	ret
 4040c48:	00c00044 	movi	r3,1
 4040c4c:	003ff406 	br	4040c20 <__flash_rwdata_start+0xfffefeb8>

04040c50 <__umodsi3>:
 4040c50:	2005883a 	mov	r2,r4
 4040c54:	2900122e 	bgeu	r5,r4,4040ca0 <__umodsi3+0x50>
 4040c58:	28001116 	blt	r5,zero,4040ca0 <__umodsi3+0x50>
 4040c5c:	01800804 	movi	r6,32
 4040c60:	00c00044 	movi	r3,1
 4040c64:	00000206 	br	4040c70 <__umodsi3+0x20>
 4040c68:	30000c26 	beq	r6,zero,4040c9c <__umodsi3+0x4c>
 4040c6c:	28000516 	blt	r5,zero,4040c84 <__umodsi3+0x34>
 4040c70:	294b883a 	add	r5,r5,r5
 4040c74:	31bfffc4 	addi	r6,r6,-1
 4040c78:	18c7883a 	add	r3,r3,r3
 4040c7c:	293ffa36 	bltu	r5,r4,4040c68 <__flash_rwdata_start+0xfffeff00>
 4040c80:	18000626 	beq	r3,zero,4040c9c <__umodsi3+0x4c>
 4040c84:	1806d07a 	srli	r3,r3,1
 4040c88:	11400136 	bltu	r2,r5,4040c90 <__umodsi3+0x40>
 4040c8c:	1145c83a 	sub	r2,r2,r5
 4040c90:	280ad07a 	srli	r5,r5,1
 4040c94:	183ffb1e 	bne	r3,zero,4040c84 <__flash_rwdata_start+0xfffeff1c>
 4040c98:	f800283a 	ret
 4040c9c:	f800283a 	ret
 4040ca0:	00c00044 	movi	r3,1
 4040ca4:	003ff706 	br	4040c84 <__flash_rwdata_start+0xfffeff1c>

04040ca8 <__mulsi3>:
 4040ca8:	0005883a 	mov	r2,zero
 4040cac:	20000726 	beq	r4,zero,4040ccc <__mulsi3+0x24>
 4040cb0:	20c0004c 	andi	r3,r4,1
 4040cb4:	2008d07a 	srli	r4,r4,1
 4040cb8:	18000126 	beq	r3,zero,4040cc0 <__mulsi3+0x18>
 4040cbc:	1145883a 	add	r2,r2,r5
 4040cc0:	294b883a 	add	r5,r5,r5
 4040cc4:	203ffa1e 	bne	r4,zero,4040cb0 <__flash_rwdata_start+0xfffeff48>
 4040cc8:	f800283a 	ret
 4040ccc:	f800283a 	ret

04040cd0 <__addsf3>:
 4040cd0:	defffc04 	addi	sp,sp,-16
 4040cd4:	2004d7fa 	srli	r2,r4,31
 4040cd8:	280cd5fa 	srli	r6,r5,23
 4040cdc:	dc000015 	stw	r16,0(sp)
 4040ce0:	00c02034 	movhi	r3,128
 4040ce4:	2020d5fa 	srli	r16,r4,23
 4040ce8:	280ed7fa 	srli	r7,r5,31
 4040cec:	18ffffc4 	addi	r3,r3,-1
 4040cf0:	dc400115 	stw	r17,4(sp)
 4040cf4:	1908703a 	and	r4,r3,r4
 4040cf8:	194a703a 	and	r5,r3,r5
 4040cfc:	dfc00315 	stw	ra,12(sp)
 4040d00:	dc800215 	stw	r18,8(sp)
 4040d04:	14403fcc 	andi	r17,r2,255
 4040d08:	84003fcc 	andi	r16,r16,255
 4040d0c:	200890fa 	slli	r4,r4,3
 4040d10:	31803fcc 	andi	r6,r6,255
 4040d14:	280a90fa 	slli	r5,r5,3
 4040d18:	89c05026 	beq	r17,r7,4040e5c <__addsf3+0x18c>
 4040d1c:	8185c83a 	sub	r2,r16,r6
 4040d20:	00807a0e 	bge	zero,r2,4040f0c <__addsf3+0x23c>
 4040d24:	30001e1e 	bne	r6,zero,4040da0 <__addsf3+0xd0>
 4040d28:	28006d1e 	bne	r5,zero,4040ee0 <__addsf3+0x210>
 4040d2c:	208001cc 	andi	r2,r4,7
 4040d30:	10000426 	beq	r2,zero,4040d44 <__addsf3+0x74>
 4040d34:	208003cc 	andi	r2,r4,15
 4040d38:	00c00104 	movi	r3,4
 4040d3c:	10c00126 	beq	r2,r3,4040d44 <__addsf3+0x74>
 4040d40:	20c9883a 	add	r4,r4,r3
 4040d44:	2081002c 	andhi	r2,r4,1024
 4040d48:	10003926 	beq	r2,zero,4040e30 <__addsf3+0x160>
 4040d4c:	84000044 	addi	r16,r16,1
 4040d50:	00803fc4 	movi	r2,255
 4040d54:	80807826 	beq	r16,r2,4040f38 <__addsf3+0x268>
 4040d58:	200891ba 	slli	r4,r4,6
 4040d5c:	8805883a 	mov	r2,r17
 4040d60:	2008d27a 	srli	r4,r4,9
 4040d64:	84003fcc 	andi	r16,r16,255
 4040d68:	800695fa 	slli	r3,r16,23
 4040d6c:	10803fcc 	andi	r2,r2,255
 4040d70:	04002034 	movhi	r16,128
 4040d74:	843fffc4 	addi	r16,r16,-1
 4040d78:	100497fa 	slli	r2,r2,31
 4040d7c:	2408703a 	and	r4,r4,r16
 4040d80:	20e0b03a 	or	r16,r4,r3
 4040d84:	8084b03a 	or	r2,r16,r2
 4040d88:	dfc00317 	ldw	ra,12(sp)
 4040d8c:	dc800217 	ldw	r18,8(sp)
 4040d90:	dc400117 	ldw	r17,4(sp)
 4040d94:	dc000017 	ldw	r16,0(sp)
 4040d98:	dec00404 	addi	sp,sp,16
 4040d9c:	f800283a 	ret
 4040da0:	00c03fc4 	movi	r3,255
 4040da4:	80ffe126 	beq	r16,r3,4040d2c <__flash_rwdata_start+0xfffeffc4>
 4040da8:	29410034 	orhi	r5,r5,1024
 4040dac:	00c006c4 	movi	r3,27
 4040db0:	18807516 	blt	r3,r2,4040f88 <__addsf3+0x2b8>
 4040db4:	00c00804 	movi	r3,32
 4040db8:	1887c83a 	sub	r3,r3,r2
 4040dbc:	28c6983a 	sll	r3,r5,r3
 4040dc0:	288ad83a 	srl	r5,r5,r2
 4040dc4:	1804c03a 	cmpne	r2,r3,zero
 4040dc8:	288ab03a 	or	r5,r5,r2
 4040dcc:	2149c83a 	sub	r4,r4,r5
 4040dd0:	2081002c 	andhi	r2,r4,1024
 4040dd4:	10001426 	beq	r2,zero,4040e28 <__addsf3+0x158>
 4040dd8:	04810034 	movhi	r18,1024
 4040ddc:	94bfffc4 	addi	r18,r18,-1
 4040de0:	24a4703a 	and	r18,r4,r18
 4040de4:	9009883a 	mov	r4,r18
 4040de8:	404328c0 	call	404328c <__clzsi2>
 4040dec:	10bffec4 	addi	r2,r2,-5
 4040df0:	90a4983a 	sll	r18,r18,r2
 4040df4:	14005416 	blt	r2,r16,4040f48 <__addsf3+0x278>
 4040df8:	1405c83a 	sub	r2,r2,r16
 4040dfc:	11000044 	addi	r4,r2,1
 4040e00:	00800804 	movi	r2,32
 4040e04:	1105c83a 	sub	r2,r2,r4
 4040e08:	9084983a 	sll	r2,r18,r2
 4040e0c:	9124d83a 	srl	r18,r18,r4
 4040e10:	0021883a 	mov	r16,zero
 4040e14:	1008c03a 	cmpne	r4,r2,zero
 4040e18:	9108b03a 	or	r4,r18,r4
 4040e1c:	003fc306 	br	4040d2c <__flash_rwdata_start+0xfffeffc4>
 4040e20:	1000db26 	beq	r2,zero,4041190 <__addsf3+0x4c0>
 4040e24:	1009883a 	mov	r4,r2
 4040e28:	208001cc 	andi	r2,r4,7
 4040e2c:	103fc11e 	bne	r2,zero,4040d34 <__flash_rwdata_start+0xfffeffcc>
 4040e30:	2006d0fa 	srli	r3,r4,3
 4040e34:	01003fc4 	movi	r4,255
 4040e38:	8805883a 	mov	r2,r17
 4040e3c:	8100241e 	bne	r16,r4,4040ed0 <__addsf3+0x200>
 4040e40:	18006e26 	beq	r3,zero,4040ffc <__addsf3+0x32c>
 4040e44:	19001034 	orhi	r4,r3,64
 4040e48:	00c02034 	movhi	r3,128
 4040e4c:	18ffffc4 	addi	r3,r3,-1
 4040e50:	043fffc4 	movi	r16,-1
 4040e54:	20c8703a 	and	r4,r4,r3
 4040e58:	003fc206 	br	4040d64 <__flash_rwdata_start+0xfffefffc>
 4040e5c:	8187c83a 	sub	r3,r16,r6
 4040e60:	00c03e0e 	bge	zero,r3,4040f5c <__addsf3+0x28c>
 4040e64:	30002326 	beq	r6,zero,4040ef4 <__addsf3+0x224>
 4040e68:	01803fc4 	movi	r6,255
 4040e6c:	81bfaf26 	beq	r16,r6,4040d2c <__flash_rwdata_start+0xfffeffc4>
 4040e70:	29410034 	orhi	r5,r5,1024
 4040e74:	018006c4 	movi	r6,27
 4040e78:	30c07416 	blt	r6,r3,404104c <__addsf3+0x37c>
 4040e7c:	01800804 	movi	r6,32
 4040e80:	30cdc83a 	sub	r6,r6,r3
 4040e84:	298c983a 	sll	r6,r5,r6
 4040e88:	28cad83a 	srl	r5,r5,r3
 4040e8c:	3006c03a 	cmpne	r3,r6,zero
 4040e90:	28cab03a 	or	r5,r5,r3
 4040e94:	2149883a 	add	r4,r4,r5
 4040e98:	20c1002c 	andhi	r3,r4,1024
 4040e9c:	183fe226 	beq	r3,zero,4040e28 <__flash_rwdata_start+0xffff00c0>
 4040ea0:	84000044 	addi	r16,r16,1
 4040ea4:	00c03fc4 	movi	r3,255
 4040ea8:	80c05426 	beq	r16,r3,4040ffc <__addsf3+0x32c>
 4040eac:	00bf0034 	movhi	r2,64512
 4040eb0:	10bfffc4 	addi	r2,r2,-1
 4040eb4:	20c0004c 	andi	r3,r4,1
 4040eb8:	2088703a 	and	r4,r4,r2
 4040ebc:	2008d07a 	srli	r4,r4,1
 4040ec0:	20c8b03a 	or	r4,r4,r3
 4040ec4:	003f9906 	br	4040d2c <__flash_rwdata_start+0xfffeffc4>
 4040ec8:	0007883a 	mov	r3,zero
 4040ecc:	0005883a 	mov	r2,zero
 4040ed0:	01002034 	movhi	r4,128
 4040ed4:	213fffc4 	addi	r4,r4,-1
 4040ed8:	1908703a 	and	r4,r3,r4
 4040edc:	003fa106 	br	4040d64 <__flash_rwdata_start+0xfffefffc>
 4040ee0:	10bfffc4 	addi	r2,r2,-1
 4040ee4:	103fb926 	beq	r2,zero,4040dcc <__flash_rwdata_start+0xffff0064>
 4040ee8:	00c03fc4 	movi	r3,255
 4040eec:	80ffaf1e 	bne	r16,r3,4040dac <__flash_rwdata_start+0xffff0044>
 4040ef0:	003f8e06 	br	4040d2c <__flash_rwdata_start+0xfffeffc4>
 4040ef4:	283f8d26 	beq	r5,zero,4040d2c <__flash_rwdata_start+0xfffeffc4>
 4040ef8:	18ffffc4 	addi	r3,r3,-1
 4040efc:	183fe526 	beq	r3,zero,4040e94 <__flash_rwdata_start+0xffff012c>
 4040f00:	01803fc4 	movi	r6,255
 4040f04:	81bfdb1e 	bne	r16,r6,4040e74 <__flash_rwdata_start+0xffff010c>
 4040f08:	003f8806 	br	4040d2c <__flash_rwdata_start+0xfffeffc4>
 4040f0c:	1000201e 	bne	r2,zero,4040f90 <__addsf3+0x2c0>
 4040f10:	80800044 	addi	r2,r16,1
 4040f14:	10803fcc 	andi	r2,r2,255
 4040f18:	01800044 	movi	r6,1
 4040f1c:	3080450e 	bge	r6,r2,4041034 <__addsf3+0x364>
 4040f20:	2165c83a 	sub	r18,r4,r5
 4040f24:	90c1002c 	andhi	r3,r18,1024
 4040f28:	18002b26 	beq	r3,zero,4040fd8 <__addsf3+0x308>
 4040f2c:	2925c83a 	sub	r18,r5,r4
 4040f30:	3823883a 	mov	r17,r7
 4040f34:	003fab06 	br	4040de4 <__flash_rwdata_start+0xffff007c>
 4040f38:	8805883a 	mov	r2,r17
 4040f3c:	043fffc4 	movi	r16,-1
 4040f40:	0009883a 	mov	r4,zero
 4040f44:	003f8706 	br	4040d64 <__flash_rwdata_start+0xfffefffc>
 4040f48:	013f0034 	movhi	r4,64512
 4040f4c:	213fffc4 	addi	r4,r4,-1
 4040f50:	80a1c83a 	sub	r16,r16,r2
 4040f54:	9108703a 	and	r4,r18,r4
 4040f58:	003f7406 	br	4040d2c <__flash_rwdata_start+0xfffeffc4>
 4040f5c:	1800411e 	bne	r3,zero,4041064 <__addsf3+0x394>
 4040f60:	80c00044 	addi	r3,r16,1
 4040f64:	19c03fcc 	andi	r7,r3,255
 4040f68:	01800044 	movi	r6,1
 4040f6c:	31c0260e 	bge	r6,r7,4041008 <__addsf3+0x338>
 4040f70:	01803fc4 	movi	r6,255
 4040f74:	19802126 	beq	r3,r6,4040ffc <__addsf3+0x32c>
 4040f78:	2149883a 	add	r4,r4,r5
 4040f7c:	2008d07a 	srli	r4,r4,1
 4040f80:	1821883a 	mov	r16,r3
 4040f84:	003f6906 	br	4040d2c <__flash_rwdata_start+0xfffeffc4>
 4040f88:	01400044 	movi	r5,1
 4040f8c:	003f8f06 	br	4040dcc <__flash_rwdata_start+0xffff0064>
 4040f90:	8000151e 	bne	r16,zero,4040fe8 <__addsf3+0x318>
 4040f94:	20002f26 	beq	r4,zero,4041054 <__addsf3+0x384>
 4040f98:	0084303a 	nor	r2,zero,r2
 4040f9c:	10000a26 	beq	r2,zero,4040fc8 <__addsf3+0x2f8>
 4040fa0:	00c03fc4 	movi	r3,255
 4040fa4:	30c02b26 	beq	r6,r3,4041054 <__addsf3+0x384>
 4040fa8:	00c006c4 	movi	r3,27
 4040fac:	18806d16 	blt	r3,r2,4041164 <__addsf3+0x494>
 4040fb0:	00c00804 	movi	r3,32
 4040fb4:	1887c83a 	sub	r3,r3,r2
 4040fb8:	20c6983a 	sll	r3,r4,r3
 4040fbc:	2084d83a 	srl	r2,r4,r2
 4040fc0:	1808c03a 	cmpne	r4,r3,zero
 4040fc4:	1108b03a 	or	r4,r2,r4
 4040fc8:	2909c83a 	sub	r4,r5,r4
 4040fcc:	3021883a 	mov	r16,r6
 4040fd0:	3823883a 	mov	r17,r7
 4040fd4:	003f7e06 	br	4040dd0 <__flash_rwdata_start+0xffff0068>
 4040fd8:	903f821e 	bne	r18,zero,4040de4 <__flash_rwdata_start+0xffff007c>
 4040fdc:	0005883a 	mov	r2,zero
 4040fe0:	0021883a 	mov	r16,zero
 4040fe4:	003fba06 	br	4040ed0 <__flash_rwdata_start+0xffff0168>
 4040fe8:	00c03fc4 	movi	r3,255
 4040fec:	30c01926 	beq	r6,r3,4041054 <__addsf3+0x384>
 4040ff0:	0085c83a 	sub	r2,zero,r2
 4040ff4:	21010034 	orhi	r4,r4,1024
 4040ff8:	003feb06 	br	4040fa8 <__flash_rwdata_start+0xffff0240>
 4040ffc:	043fffc4 	movi	r16,-1
 4041000:	0009883a 	mov	r4,zero
 4041004:	003f5706 	br	4040d64 <__flash_rwdata_start+0xfffefffc>
 4041008:	80004a1e 	bne	r16,zero,4041134 <__addsf3+0x464>
 404100c:	20005926 	beq	r4,zero,4041174 <__addsf3+0x4a4>
 4041010:	283f4626 	beq	r5,zero,4040d2c <__flash_rwdata_start+0xfffeffc4>
 4041014:	2149883a 	add	r4,r4,r5
 4041018:	2081002c 	andhi	r2,r4,1024
 404101c:	103f8226 	beq	r2,zero,4040e28 <__flash_rwdata_start+0xffff00c0>
 4041020:	00bf0034 	movhi	r2,64512
 4041024:	10bfffc4 	addi	r2,r2,-1
 4041028:	3021883a 	mov	r16,r6
 404102c:	2088703a 	and	r4,r4,r2
 4041030:	003f3e06 	br	4040d2c <__flash_rwdata_start+0xfffeffc4>
 4041034:	8000121e 	bne	r16,zero,4041080 <__addsf3+0x3b0>
 4041038:	2000261e 	bne	r4,zero,40410d4 <__addsf3+0x404>
 404103c:	283fa226 	beq	r5,zero,4040ec8 <__flash_rwdata_start+0xffff0160>
 4041040:	2809883a 	mov	r4,r5
 4041044:	3823883a 	mov	r17,r7
 4041048:	003f3806 	br	4040d2c <__flash_rwdata_start+0xfffeffc4>
 404104c:	01400044 	movi	r5,1
 4041050:	003f9006 	br	4040e94 <__flash_rwdata_start+0xffff012c>
 4041054:	2809883a 	mov	r4,r5
 4041058:	3021883a 	mov	r16,r6
 404105c:	3823883a 	mov	r17,r7
 4041060:	003f3206 	br	4040d2c <__flash_rwdata_start+0xfffeffc4>
 4041064:	80000c1e 	bne	r16,zero,4041098 <__addsf3+0x3c8>
 4041068:	20002f26 	beq	r4,zero,4041128 <__addsf3+0x458>
 404106c:	00c6303a 	nor	r3,zero,r3
 4041070:	18002b1e 	bne	r3,zero,4041120 <__addsf3+0x450>
 4041074:	2149883a 	add	r4,r4,r5
 4041078:	3021883a 	mov	r16,r6
 404107c:	003f8606 	br	4040e98 <__flash_rwdata_start+0xffff0130>
 4041080:	20001b1e 	bne	r4,zero,40410f0 <__addsf3+0x420>
 4041084:	28003926 	beq	r5,zero,404116c <__addsf3+0x49c>
 4041088:	2809883a 	mov	r4,r5
 404108c:	3823883a 	mov	r17,r7
 4041090:	04003fc4 	movi	r16,255
 4041094:	003f2506 	br	4040d2c <__flash_rwdata_start+0xfffeffc4>
 4041098:	01c03fc4 	movi	r7,255
 404109c:	31c02226 	beq	r6,r7,4041128 <__addsf3+0x458>
 40410a0:	00c7c83a 	sub	r3,zero,r3
 40410a4:	21010034 	orhi	r4,r4,1024
 40410a8:	01c006c4 	movi	r7,27
 40410ac:	38c03616 	blt	r7,r3,4041188 <__addsf3+0x4b8>
 40410b0:	01c00804 	movi	r7,32
 40410b4:	38cfc83a 	sub	r7,r7,r3
 40410b8:	21ce983a 	sll	r7,r4,r7
 40410bc:	20c6d83a 	srl	r3,r4,r3
 40410c0:	3808c03a 	cmpne	r4,r7,zero
 40410c4:	1906b03a 	or	r3,r3,r4
 40410c8:	1949883a 	add	r4,r3,r5
 40410cc:	3021883a 	mov	r16,r6
 40410d0:	003f7106 	br	4040e98 <__flash_rwdata_start+0xffff0130>
 40410d4:	283f1526 	beq	r5,zero,4040d2c <__flash_rwdata_start+0xfffeffc4>
 40410d8:	2145c83a 	sub	r2,r4,r5
 40410dc:	10c1002c 	andhi	r3,r2,1024
 40410e0:	183f4f26 	beq	r3,zero,4040e20 <__flash_rwdata_start+0xffff00b8>
 40410e4:	2909c83a 	sub	r4,r5,r4
 40410e8:	3823883a 	mov	r17,r7
 40410ec:	003f0f06 	br	4040d2c <__flash_rwdata_start+0xfffeffc4>
 40410f0:	28001a26 	beq	r5,zero,404115c <__addsf3+0x48c>
 40410f4:	2008d0fa 	srli	r4,r4,3
 40410f8:	2080102c 	andhi	r2,r4,64
 40410fc:	10000526 	beq	r2,zero,4041114 <__addsf3+0x444>
 4041100:	280ad0fa 	srli	r5,r5,3
 4041104:	2880102c 	andhi	r2,r5,64
 4041108:	1000021e 	bne	r2,zero,4041114 <__addsf3+0x444>
 404110c:	2809883a 	mov	r4,r5
 4041110:	3823883a 	mov	r17,r7
 4041114:	200890fa 	slli	r4,r4,3
 4041118:	04003fc4 	movi	r16,255
 404111c:	003f0306 	br	4040d2c <__flash_rwdata_start+0xfffeffc4>
 4041120:	01c03fc4 	movi	r7,255
 4041124:	31ffe01e 	bne	r6,r7,40410a8 <__flash_rwdata_start+0xffff0340>
 4041128:	2809883a 	mov	r4,r5
 404112c:	3021883a 	mov	r16,r6
 4041130:	003efe06 	br	4040d2c <__flash_rwdata_start+0xfffeffc4>
 4041134:	20001126 	beq	r4,zero,404117c <__addsf3+0x4ac>
 4041138:	28000826 	beq	r5,zero,404115c <__addsf3+0x48c>
 404113c:	2008d0fa 	srli	r4,r4,3
 4041140:	2080102c 	andhi	r2,r4,64
 4041144:	103ff326 	beq	r2,zero,4041114 <__flash_rwdata_start+0xffff03ac>
 4041148:	280ad0fa 	srli	r5,r5,3
 404114c:	2880102c 	andhi	r2,r5,64
 4041150:	103ff01e 	bne	r2,zero,4041114 <__flash_rwdata_start+0xffff03ac>
 4041154:	2809883a 	mov	r4,r5
 4041158:	003fee06 	br	4041114 <__flash_rwdata_start+0xffff03ac>
 404115c:	04003fc4 	movi	r16,255
 4041160:	003ef206 	br	4040d2c <__flash_rwdata_start+0xfffeffc4>
 4041164:	01000044 	movi	r4,1
 4041168:	003f9706 	br	4040fc8 <__flash_rwdata_start+0xffff0260>
 404116c:	0005883a 	mov	r2,zero
 4041170:	003f3406 	br	4040e44 <__flash_rwdata_start+0xffff00dc>
 4041174:	2809883a 	mov	r4,r5
 4041178:	003eec06 	br	4040d2c <__flash_rwdata_start+0xfffeffc4>
 404117c:	2809883a 	mov	r4,r5
 4041180:	04003fc4 	movi	r16,255
 4041184:	003ee906 	br	4040d2c <__flash_rwdata_start+0xfffeffc4>
 4041188:	00c00044 	movi	r3,1
 404118c:	003fce06 	br	40410c8 <__flash_rwdata_start+0xffff0360>
 4041190:	0005883a 	mov	r2,zero
 4041194:	003f4e06 	br	4040ed0 <__flash_rwdata_start+0xffff0168>

04041198 <__lesf2>:
 4041198:	2004d5fa 	srli	r2,r4,23
 404119c:	280cd5fa 	srli	r6,r5,23
 40411a0:	00c02034 	movhi	r3,128
 40411a4:	18ffffc4 	addi	r3,r3,-1
 40411a8:	10803fcc 	andi	r2,r2,255
 40411ac:	01c03fc4 	movi	r7,255
 40411b0:	1910703a 	and	r8,r3,r4
 40411b4:	31803fcc 	andi	r6,r6,255
 40411b8:	1946703a 	and	r3,r3,r5
 40411bc:	2008d7fa 	srli	r4,r4,31
 40411c0:	280ad7fa 	srli	r5,r5,31
 40411c4:	11c01b26 	beq	r2,r7,4041234 <__lesf2+0x9c>
 40411c8:	01c03fc4 	movi	r7,255
 40411cc:	31c01126 	beq	r6,r7,4041214 <__lesf2+0x7c>
 40411d0:	1000071e 	bne	r2,zero,40411f0 <__lesf2+0x58>
 40411d4:	400f003a 	cmpeq	r7,r8,zero
 40411d8:	21003fcc 	andi	r4,r4,255
 40411dc:	3000081e 	bne	r6,zero,4041200 <__lesf2+0x68>
 40411e0:	1800071e 	bne	r3,zero,4041200 <__lesf2+0x68>
 40411e4:	0005883a 	mov	r2,zero
 40411e8:	40000f1e 	bne	r8,zero,4041228 <__lesf2+0x90>
 40411ec:	f800283a 	ret
 40411f0:	21003fcc 	andi	r4,r4,255
 40411f4:	30000a1e 	bne	r6,zero,4041220 <__lesf2+0x88>
 40411f8:	18000b26 	beq	r3,zero,4041228 <__lesf2+0x90>
 40411fc:	000f883a 	mov	r7,zero
 4041200:	29403fcc 	andi	r5,r5,255
 4041204:	38000726 	beq	r7,zero,4041224 <__lesf2+0x8c>
 4041208:	28000826 	beq	r5,zero,404122c <__lesf2+0x94>
 404120c:	00800044 	movi	r2,1
 4041210:	f800283a 	ret
 4041214:	183fee26 	beq	r3,zero,40411d0 <__flash_rwdata_start+0xffff0468>
 4041218:	00800084 	movi	r2,2
 404121c:	f800283a 	ret
 4041220:	29403fcc 	andi	r5,r5,255
 4041224:	21400626 	beq	r4,r5,4041240 <__lesf2+0xa8>
 4041228:	203ff826 	beq	r4,zero,404120c <__flash_rwdata_start+0xffff04a4>
 404122c:	00bfffc4 	movi	r2,-1
 4041230:	f800283a 	ret
 4041234:	403fe426 	beq	r8,zero,40411c8 <__flash_rwdata_start+0xffff0460>
 4041238:	00800084 	movi	r2,2
 404123c:	f800283a 	ret
 4041240:	30bff916 	blt	r6,r2,4041228 <__flash_rwdata_start+0xffff04c0>
 4041244:	11800216 	blt	r2,r6,4041250 <__lesf2+0xb8>
 4041248:	1a3ff736 	bltu	r3,r8,4041228 <__flash_rwdata_start+0xffff04c0>
 404124c:	40c0022e 	bgeu	r8,r3,4041258 <__lesf2+0xc0>
 4041250:	203fee1e 	bne	r4,zero,404120c <__flash_rwdata_start+0xffff04a4>
 4041254:	003ff506 	br	404122c <__flash_rwdata_start+0xffff04c4>
 4041258:	0005883a 	mov	r2,zero
 404125c:	f800283a 	ret

04041260 <__floatsisf>:
 4041260:	defffd04 	addi	sp,sp,-12
 4041264:	dfc00215 	stw	ra,8(sp)
 4041268:	dc400115 	stw	r17,4(sp)
 404126c:	dc000015 	stw	r16,0(sp)
 4041270:	20003526 	beq	r4,zero,4041348 <__floatsisf+0xe8>
 4041274:	2021883a 	mov	r16,r4
 4041278:	2022d7fa 	srli	r17,r4,31
 404127c:	20003616 	blt	r4,zero,4041358 <__floatsisf+0xf8>
 4041280:	8009883a 	mov	r4,r16
 4041284:	404328c0 	call	404328c <__clzsi2>
 4041288:	00c02784 	movi	r3,158
 404128c:	1887c83a 	sub	r3,r3,r2
 4041290:	01002584 	movi	r4,150
 4041294:	20c01416 	blt	r4,r3,40412e8 <__floatsisf+0x88>
 4041298:	20c9c83a 	sub	r4,r4,r3
 404129c:	8120983a 	sll	r16,r16,r4
 40412a0:	00802034 	movhi	r2,128
 40412a4:	10bfffc4 	addi	r2,r2,-1
 40412a8:	8809883a 	mov	r4,r17
 40412ac:	80a0703a 	and	r16,r16,r2
 40412b0:	18803fcc 	andi	r2,r3,255
 40412b4:	100695fa 	slli	r3,r2,23
 40412b8:	20803fcc 	andi	r2,r4,255
 40412bc:	100897fa 	slli	r4,r2,31
 40412c0:	00802034 	movhi	r2,128
 40412c4:	10bfffc4 	addi	r2,r2,-1
 40412c8:	8084703a 	and	r2,r16,r2
 40412cc:	10c4b03a 	or	r2,r2,r3
 40412d0:	1104b03a 	or	r2,r2,r4
 40412d4:	dfc00217 	ldw	ra,8(sp)
 40412d8:	dc400117 	ldw	r17,4(sp)
 40412dc:	dc000017 	ldw	r16,0(sp)
 40412e0:	dec00304 	addi	sp,sp,12
 40412e4:	f800283a 	ret
 40412e8:	01002644 	movi	r4,153
 40412ec:	20c01c16 	blt	r4,r3,4041360 <__floatsisf+0x100>
 40412f0:	20c9c83a 	sub	r4,r4,r3
 40412f4:	8120983a 	sll	r16,r16,r4
 40412f8:	013f0034 	movhi	r4,64512
 40412fc:	213fffc4 	addi	r4,r4,-1
 4041300:	814001cc 	andi	r5,r16,7
 4041304:	8108703a 	and	r4,r16,r4
 4041308:	28000426 	beq	r5,zero,404131c <__floatsisf+0xbc>
 404130c:	840003cc 	andi	r16,r16,15
 4041310:	01400104 	movi	r5,4
 4041314:	81400126 	beq	r16,r5,404131c <__floatsisf+0xbc>
 4041318:	2149883a 	add	r4,r4,r5
 404131c:	2141002c 	andhi	r5,r4,1024
 4041320:	28000526 	beq	r5,zero,4041338 <__floatsisf+0xd8>
 4041324:	00c027c4 	movi	r3,159
 4041328:	1887c83a 	sub	r3,r3,r2
 404132c:	00bf0034 	movhi	r2,64512
 4041330:	10bfffc4 	addi	r2,r2,-1
 4041334:	2088703a 	and	r4,r4,r2
 4041338:	202091ba 	slli	r16,r4,6
 404133c:	8809883a 	mov	r4,r17
 4041340:	8020d27a 	srli	r16,r16,9
 4041344:	003fda06 	br	40412b0 <__flash_rwdata_start+0xffff0548>
 4041348:	0009883a 	mov	r4,zero
 404134c:	0007883a 	mov	r3,zero
 4041350:	0021883a 	mov	r16,zero
 4041354:	003fd606 	br	40412b0 <__flash_rwdata_start+0xffff0548>
 4041358:	0121c83a 	sub	r16,zero,r4
 404135c:	003fc806 	br	4041280 <__flash_rwdata_start+0xffff0518>
 4041360:	01002e44 	movi	r4,185
 4041364:	20c9c83a 	sub	r4,r4,r3
 4041368:	01400144 	movi	r5,5
 404136c:	8108983a 	sll	r4,r16,r4
 4041370:	288bc83a 	sub	r5,r5,r2
 4041374:	8160d83a 	srl	r16,r16,r5
 4041378:	2008c03a 	cmpne	r4,r4,zero
 404137c:	8120b03a 	or	r16,r16,r4
 4041380:	003fdd06 	br	40412f8 <__flash_rwdata_start+0xffff0590>

04041384 <__floatunsisf>:
 4041384:	defffe04 	addi	sp,sp,-8
 4041388:	dfc00115 	stw	ra,4(sp)
 404138c:	dc000015 	stw	r16,0(sp)
 4041390:	20002c26 	beq	r4,zero,4041444 <__floatunsisf+0xc0>
 4041394:	2021883a 	mov	r16,r4
 4041398:	404328c0 	call	404328c <__clzsi2>
 404139c:	00c02784 	movi	r3,158
 40413a0:	1887c83a 	sub	r3,r3,r2
 40413a4:	01002584 	movi	r4,150
 40413a8:	20c00f16 	blt	r4,r3,40413e8 <__floatunsisf+0x64>
 40413ac:	20c9c83a 	sub	r4,r4,r3
 40413b0:	8108983a 	sll	r4,r16,r4
 40413b4:	00802034 	movhi	r2,128
 40413b8:	10bfffc4 	addi	r2,r2,-1
 40413bc:	2088703a 	and	r4,r4,r2
 40413c0:	18803fcc 	andi	r2,r3,255
 40413c4:	100695fa 	slli	r3,r2,23
 40413c8:	00802034 	movhi	r2,128
 40413cc:	10bfffc4 	addi	r2,r2,-1
 40413d0:	2084703a 	and	r2,r4,r2
 40413d4:	10c4b03a 	or	r2,r2,r3
 40413d8:	dfc00117 	ldw	ra,4(sp)
 40413dc:	dc000017 	ldw	r16,0(sp)
 40413e0:	dec00204 	addi	sp,sp,8
 40413e4:	f800283a 	ret
 40413e8:	01002644 	movi	r4,153
 40413ec:	20c01816 	blt	r4,r3,4041450 <__floatunsisf+0xcc>
 40413f0:	20c9c83a 	sub	r4,r4,r3
 40413f4:	8108983a 	sll	r4,r16,r4
 40413f8:	017f0034 	movhi	r5,64512
 40413fc:	297fffc4 	addi	r5,r5,-1
 4041400:	218001cc 	andi	r6,r4,7
 4041404:	214a703a 	and	r5,r4,r5
 4041408:	30000426 	beq	r6,zero,404141c <__floatunsisf+0x98>
 404140c:	210003cc 	andi	r4,r4,15
 4041410:	01800104 	movi	r6,4
 4041414:	21800126 	beq	r4,r6,404141c <__floatunsisf+0x98>
 4041418:	298b883a 	add	r5,r5,r6
 404141c:	2901002c 	andhi	r4,r5,1024
 4041420:	20000526 	beq	r4,zero,4041438 <__floatunsisf+0xb4>
 4041424:	00c027c4 	movi	r3,159
 4041428:	1887c83a 	sub	r3,r3,r2
 404142c:	00bf0034 	movhi	r2,64512
 4041430:	10bfffc4 	addi	r2,r2,-1
 4041434:	288a703a 	and	r5,r5,r2
 4041438:	280891ba 	slli	r4,r5,6
 404143c:	2008d27a 	srli	r4,r4,9
 4041440:	003fdf06 	br	40413c0 <__flash_rwdata_start+0xffff0658>
 4041444:	0007883a 	mov	r3,zero
 4041448:	0009883a 	mov	r4,zero
 404144c:	003fdc06 	br	40413c0 <__flash_rwdata_start+0xffff0658>
 4041450:	01402e44 	movi	r5,185
 4041454:	28cbc83a 	sub	r5,r5,r3
 4041458:	01000144 	movi	r4,5
 404145c:	2089c83a 	sub	r4,r4,r2
 4041460:	814a983a 	sll	r5,r16,r5
 4041464:	8108d83a 	srl	r4,r16,r4
 4041468:	2820c03a 	cmpne	r16,r5,zero
 404146c:	2408b03a 	or	r4,r4,r16
 4041470:	003fe106 	br	40413f8 <__flash_rwdata_start+0xffff0690>

04041474 <__divdf3>:
 4041474:	defff004 	addi	sp,sp,-64
 4041478:	dc800815 	stw	r18,32(sp)
 404147c:	2824d53a 	srli	r18,r5,20
 4041480:	dd800c15 	stw	r22,48(sp)
 4041484:	282cd7fa 	srli	r22,r5,31
 4041488:	dc000615 	stw	r16,24(sp)
 404148c:	04000434 	movhi	r16,16
 4041490:	843fffc4 	addi	r16,r16,-1
 4041494:	dfc00f15 	stw	ra,60(sp)
 4041498:	df000e15 	stw	fp,56(sp)
 404149c:	ddc00d15 	stw	r23,52(sp)
 40414a0:	dd400b15 	stw	r21,44(sp)
 40414a4:	dd000a15 	stw	r20,40(sp)
 40414a8:	dcc00915 	stw	r19,36(sp)
 40414ac:	dc400715 	stw	r17,28(sp)
 40414b0:	9481ffcc 	andi	r18,r18,2047
 40414b4:	2c20703a 	and	r16,r5,r16
 40414b8:	b2003fcc 	andi	r8,r22,255
 40414bc:	90006126 	beq	r18,zero,4041644 <__divdf3+0x1d0>
 40414c0:	0081ffc4 	movi	r2,2047
 40414c4:	202b883a 	mov	r21,r4
 40414c8:	90803726 	beq	r18,r2,40415a8 <__divdf3+0x134>
 40414cc:	80800434 	orhi	r2,r16,16
 40414d0:	100490fa 	slli	r2,r2,3
 40414d4:	2020d77a 	srli	r16,r4,29
 40414d8:	202a90fa 	slli	r21,r4,3
 40414dc:	94bf0044 	addi	r18,r18,-1023
 40414e0:	80a0b03a 	or	r16,r16,r2
 40414e4:	0013883a 	mov	r9,zero
 40414e8:	000b883a 	mov	r5,zero
 40414ec:	3806d53a 	srli	r3,r7,20
 40414f0:	382ed7fa 	srli	r23,r7,31
 40414f4:	04400434 	movhi	r17,16
 40414f8:	8c7fffc4 	addi	r17,r17,-1
 40414fc:	18c1ffcc 	andi	r3,r3,2047
 4041500:	3029883a 	mov	r20,r6
 4041504:	3c62703a 	and	r17,r7,r17
 4041508:	bf003fcc 	andi	fp,r23,255
 404150c:	18006e26 	beq	r3,zero,40416c8 <__divdf3+0x254>
 4041510:	0081ffc4 	movi	r2,2047
 4041514:	18806626 	beq	r3,r2,40416b0 <__divdf3+0x23c>
 4041518:	88800434 	orhi	r2,r17,16
 404151c:	100490fa 	slli	r2,r2,3
 4041520:	3022d77a 	srli	r17,r6,29
 4041524:	302890fa 	slli	r20,r6,3
 4041528:	18ff0044 	addi	r3,r3,-1023
 404152c:	88a2b03a 	or	r17,r17,r2
 4041530:	000f883a 	mov	r7,zero
 4041534:	b5e6f03a 	xor	r19,r22,r23
 4041538:	3a4cb03a 	or	r6,r7,r9
 404153c:	008003c4 	movi	r2,15
 4041540:	9809883a 	mov	r4,r19
 4041544:	90c7c83a 	sub	r3,r18,r3
 4041548:	9cc03fcc 	andi	r19,r19,255
 404154c:	11809636 	bltu	r2,r6,40417a8 <__divdf3+0x334>
 4041550:	300c90ba 	slli	r6,r6,2
 4041554:	00810134 	movhi	r2,1028
 4041558:	10855a04 	addi	r2,r2,5480
 404155c:	308d883a 	add	r6,r6,r2
 4041560:	30800017 	ldw	r2,0(r6)
 4041564:	1000683a 	jmp	r2
 4041568:	040417a8 	cmpgeui	r16,zero,4190
 404156c:	040415e0 	cmpeqi	r16,zero,4183
 4041570:	04041798 	cmpnei	r16,zero,4190
 4041574:	040415d4 	movui	r16,4183
 4041578:	04041798 	cmpnei	r16,zero,4190
 404157c:	0404176c 	andhi	r16,zero,4189
 4041580:	04041798 	cmpnei	r16,zero,4190
 4041584:	040415d4 	movui	r16,4183
 4041588:	040415e0 	cmpeqi	r16,zero,4183
 404158c:	040415e0 	cmpeqi	r16,zero,4183
 4041590:	0404176c 	andhi	r16,zero,4189
 4041594:	040415d4 	movui	r16,4183
 4041598:	040415c4 	movi	r16,4183
 404159c:	040415c4 	movi	r16,4183
 40415a0:	040415c4 	movi	r16,4183
 40415a4:	04041b30 	cmpltui	r16,zero,4204
 40415a8:	2404b03a 	or	r2,r4,r16
 40415ac:	10006c1e 	bne	r2,zero,4041760 <__divdf3+0x2ec>
 40415b0:	02400204 	movi	r9,8
 40415b4:	0021883a 	mov	r16,zero
 40415b8:	002b883a 	mov	r21,zero
 40415bc:	01400084 	movi	r5,2
 40415c0:	003fca06 	br	40414ec <__flash_rwdata_start+0xffff0784>
 40415c4:	8023883a 	mov	r17,r16
 40415c8:	a829883a 	mov	r20,r21
 40415cc:	4039883a 	mov	fp,r8
 40415d0:	280f883a 	mov	r7,r5
 40415d4:	00800084 	movi	r2,2
 40415d8:	3881601e 	bne	r7,r2,4041b5c <__divdf3+0x6e8>
 40415dc:	e027883a 	mov	r19,fp
 40415e0:	9900004c 	andi	r4,r19,1
 40415e4:	0081ffc4 	movi	r2,2047
 40415e8:	0021883a 	mov	r16,zero
 40415ec:	002b883a 	mov	r21,zero
 40415f0:	1004953a 	slli	r2,r2,20
 40415f4:	20c03fcc 	andi	r3,r4,255
 40415f8:	01400434 	movhi	r5,16
 40415fc:	297fffc4 	addi	r5,r5,-1
 4041600:	180697fa 	slli	r3,r3,31
 4041604:	8160703a 	and	r16,r16,r5
 4041608:	80a0b03a 	or	r16,r16,r2
 404160c:	80c6b03a 	or	r3,r16,r3
 4041610:	a805883a 	mov	r2,r21
 4041614:	dfc00f17 	ldw	ra,60(sp)
 4041618:	df000e17 	ldw	fp,56(sp)
 404161c:	ddc00d17 	ldw	r23,52(sp)
 4041620:	dd800c17 	ldw	r22,48(sp)
 4041624:	dd400b17 	ldw	r21,44(sp)
 4041628:	dd000a17 	ldw	r20,40(sp)
 404162c:	dcc00917 	ldw	r19,36(sp)
 4041630:	dc800817 	ldw	r18,32(sp)
 4041634:	dc400717 	ldw	r17,28(sp)
 4041638:	dc000617 	ldw	r16,24(sp)
 404163c:	dec01004 	addi	sp,sp,64
 4041640:	f800283a 	ret
 4041644:	2404b03a 	or	r2,r4,r16
 4041648:	2023883a 	mov	r17,r4
 404164c:	10003f26 	beq	r2,zero,404174c <__divdf3+0x2d8>
 4041650:	80015e26 	beq	r16,zero,4041bcc <__divdf3+0x758>
 4041654:	8009883a 	mov	r4,r16
 4041658:	d9800215 	stw	r6,8(sp)
 404165c:	d9c00515 	stw	r7,20(sp)
 4041660:	da000415 	stw	r8,16(sp)
 4041664:	404328c0 	call	404328c <__clzsi2>
 4041668:	d9800217 	ldw	r6,8(sp)
 404166c:	d9c00517 	ldw	r7,20(sp)
 4041670:	da000417 	ldw	r8,16(sp)
 4041674:	113ffd44 	addi	r4,r2,-11
 4041678:	00c00704 	movi	r3,28
 404167c:	19014f16 	blt	r3,r4,4041bbc <__divdf3+0x748>
 4041680:	00c00744 	movi	r3,29
 4041684:	157ffe04 	addi	r21,r2,-8
 4041688:	1907c83a 	sub	r3,r3,r4
 404168c:	8560983a 	sll	r16,r16,r21
 4041690:	88c6d83a 	srl	r3,r17,r3
 4041694:	8d6a983a 	sll	r21,r17,r21
 4041698:	1c20b03a 	or	r16,r3,r16
 404169c:	1080fcc4 	addi	r2,r2,1011
 40416a0:	00a5c83a 	sub	r18,zero,r2
 40416a4:	0013883a 	mov	r9,zero
 40416a8:	000b883a 	mov	r5,zero
 40416ac:	003f8f06 	br	40414ec <__flash_rwdata_start+0xffff0784>
 40416b0:	3444b03a 	or	r2,r6,r17
 40416b4:	1000231e 	bne	r2,zero,4041744 <__divdf3+0x2d0>
 40416b8:	0023883a 	mov	r17,zero
 40416bc:	0029883a 	mov	r20,zero
 40416c0:	01c00084 	movi	r7,2
 40416c4:	003f9b06 	br	4041534 <__flash_rwdata_start+0xffff07cc>
 40416c8:	3444b03a 	or	r2,r6,r17
 40416cc:	10001926 	beq	r2,zero,4041734 <__divdf3+0x2c0>
 40416d0:	88014b26 	beq	r17,zero,4041c00 <__divdf3+0x78c>
 40416d4:	8809883a 	mov	r4,r17
 40416d8:	d9400115 	stw	r5,4(sp)
 40416dc:	d9800215 	stw	r6,8(sp)
 40416e0:	da000415 	stw	r8,16(sp)
 40416e4:	da400315 	stw	r9,12(sp)
 40416e8:	404328c0 	call	404328c <__clzsi2>
 40416ec:	d9400117 	ldw	r5,4(sp)
 40416f0:	d9800217 	ldw	r6,8(sp)
 40416f4:	da000417 	ldw	r8,16(sp)
 40416f8:	da400317 	ldw	r9,12(sp)
 40416fc:	113ffd44 	addi	r4,r2,-11
 4041700:	00c00704 	movi	r3,28
 4041704:	19013a16 	blt	r3,r4,4041bf0 <__divdf3+0x77c>
 4041708:	00c00744 	movi	r3,29
 404170c:	153ffe04 	addi	r20,r2,-8
 4041710:	1907c83a 	sub	r3,r3,r4
 4041714:	8d22983a 	sll	r17,r17,r20
 4041718:	30c6d83a 	srl	r3,r6,r3
 404171c:	3528983a 	sll	r20,r6,r20
 4041720:	1c62b03a 	or	r17,r3,r17
 4041724:	1080fcc4 	addi	r2,r2,1011
 4041728:	0087c83a 	sub	r3,zero,r2
 404172c:	000f883a 	mov	r7,zero
 4041730:	003f8006 	br	4041534 <__flash_rwdata_start+0xffff07cc>
 4041734:	0023883a 	mov	r17,zero
 4041738:	0029883a 	mov	r20,zero
 404173c:	01c00044 	movi	r7,1
 4041740:	003f7c06 	br	4041534 <__flash_rwdata_start+0xffff07cc>
 4041744:	01c000c4 	movi	r7,3
 4041748:	003f7a06 	br	4041534 <__flash_rwdata_start+0xffff07cc>
 404174c:	02400104 	movi	r9,4
 4041750:	0021883a 	mov	r16,zero
 4041754:	002b883a 	mov	r21,zero
 4041758:	01400044 	movi	r5,1
 404175c:	003f6306 	br	40414ec <__flash_rwdata_start+0xffff0784>
 4041760:	02400304 	movi	r9,12
 4041764:	014000c4 	movi	r5,3
 4041768:	003f6006 	br	40414ec <__flash_rwdata_start+0xffff0784>
 404176c:	04000434 	movhi	r16,16
 4041770:	0009883a 	mov	r4,zero
 4041774:	843fffc4 	addi	r16,r16,-1
 4041778:	057fffc4 	movi	r21,-1
 404177c:	0081ffc4 	movi	r2,2047
 4041780:	003f9b06 	br	40415f0 <__flash_rwdata_start+0xffff0888>
 4041784:	00c00044 	movi	r3,1
 4041788:	1887c83a 	sub	r3,r3,r2
 404178c:	01000e04 	movi	r4,56
 4041790:	20c1530e 	bge	r4,r3,4041ce0 <__divdf3+0x86c>
 4041794:	9900004c 	andi	r4,r19,1
 4041798:	0005883a 	mov	r2,zero
 404179c:	0021883a 	mov	r16,zero
 40417a0:	002b883a 	mov	r21,zero
 40417a4:	003f9206 	br	40415f0 <__flash_rwdata_start+0xffff0888>
 40417a8:	8c012e36 	bltu	r17,r16,4041c64 <__divdf3+0x7f0>
 40417ac:	84412c26 	beq	r16,r17,4041c60 <__divdf3+0x7ec>
 40417b0:	a82f883a 	mov	r23,r21
 40417b4:	18ffffc4 	addi	r3,r3,-1
 40417b8:	002b883a 	mov	r21,zero
 40417bc:	a004d63a 	srli	r2,r20,24
 40417c0:	8822923a 	slli	r17,r17,8
 40417c4:	a028923a 	slli	r20,r20,8
 40417c8:	8009883a 	mov	r4,r16
 40417cc:	88acb03a 	or	r22,r17,r2
 40417d0:	dd000015 	stw	r20,0(sp)
 40417d4:	b028d43a 	srli	r20,r22,16
 40417d8:	d8c00215 	stw	r3,8(sp)
 40417dc:	b4bfffcc 	andi	r18,r22,65535
 40417e0:	a00b883a 	mov	r5,r20
 40417e4:	4040bec0 	call	4040bec <__udivsi3>
 40417e8:	100b883a 	mov	r5,r2
 40417ec:	9009883a 	mov	r4,r18
 40417f0:	1023883a 	mov	r17,r2
 40417f4:	4040ca80 	call	4040ca8 <__mulsi3>
 40417f8:	8009883a 	mov	r4,r16
 40417fc:	a00b883a 	mov	r5,r20
 4041800:	1039883a 	mov	fp,r2
 4041804:	4040c500 	call	4040c50 <__umodsi3>
 4041808:	1004943a 	slli	r2,r2,16
 404180c:	b808d43a 	srli	r4,r23,16
 4041810:	d8c00217 	ldw	r3,8(sp)
 4041814:	2084b03a 	or	r2,r4,r2
 4041818:	1700062e 	bgeu	r2,fp,4041834 <__divdf3+0x3c0>
 404181c:	1585883a 	add	r2,r2,r22
 4041820:	893fffc4 	addi	r4,r17,-1
 4041824:	15811d36 	bltu	r2,r22,4041c9c <__divdf3+0x828>
 4041828:	17011c2e 	bgeu	r2,fp,4041c9c <__divdf3+0x828>
 404182c:	8c7fff84 	addi	r17,r17,-2
 4041830:	1585883a 	add	r2,r2,r22
 4041834:	1739c83a 	sub	fp,r2,fp
 4041838:	a00b883a 	mov	r5,r20
 404183c:	e009883a 	mov	r4,fp
 4041840:	d8c00215 	stw	r3,8(sp)
 4041844:	4040bec0 	call	4040bec <__udivsi3>
 4041848:	100b883a 	mov	r5,r2
 404184c:	9009883a 	mov	r4,r18
 4041850:	1021883a 	mov	r16,r2
 4041854:	4040ca80 	call	4040ca8 <__mulsi3>
 4041858:	a00b883a 	mov	r5,r20
 404185c:	e009883a 	mov	r4,fp
 4041860:	d8800415 	stw	r2,16(sp)
 4041864:	4040c500 	call	4040c50 <__umodsi3>
 4041868:	1004943a 	slli	r2,r2,16
 404186c:	da000417 	ldw	r8,16(sp)
 4041870:	bdffffcc 	andi	r23,r23,65535
 4041874:	b884b03a 	or	r2,r23,r2
 4041878:	d8c00217 	ldw	r3,8(sp)
 404187c:	1200062e 	bgeu	r2,r8,4041898 <__divdf3+0x424>
 4041880:	1585883a 	add	r2,r2,r22
 4041884:	813fffc4 	addi	r4,r16,-1
 4041888:	15810236 	bltu	r2,r22,4041c94 <__divdf3+0x820>
 404188c:	1201012e 	bgeu	r2,r8,4041c94 <__divdf3+0x820>
 4041890:	843fff84 	addi	r16,r16,-2
 4041894:	1585883a 	add	r2,r2,r22
 4041898:	8822943a 	slli	r17,r17,16
 404189c:	d9800017 	ldw	r6,0(sp)
 40418a0:	1211c83a 	sub	r8,r2,r8
 40418a4:	8c22b03a 	or	r17,r17,r16
 40418a8:	373fffcc 	andi	fp,r6,65535
 40418ac:	8abfffcc 	andi	r10,r17,65535
 40418b0:	8820d43a 	srli	r16,r17,16
 40418b4:	5009883a 	mov	r4,r10
 40418b8:	e00b883a 	mov	r5,fp
 40418bc:	302ed43a 	srli	r23,r6,16
 40418c0:	d8c00215 	stw	r3,8(sp)
 40418c4:	da000415 	stw	r8,16(sp)
 40418c8:	da800115 	stw	r10,4(sp)
 40418cc:	4040ca80 	call	4040ca8 <__mulsi3>
 40418d0:	800b883a 	mov	r5,r16
 40418d4:	e009883a 	mov	r4,fp
 40418d8:	d8800515 	stw	r2,20(sp)
 40418dc:	4040ca80 	call	4040ca8 <__mulsi3>
 40418e0:	8009883a 	mov	r4,r16
 40418e4:	b80b883a 	mov	r5,r23
 40418e8:	d8800315 	stw	r2,12(sp)
 40418ec:	4040ca80 	call	4040ca8 <__mulsi3>
 40418f0:	da800117 	ldw	r10,4(sp)
 40418f4:	b80b883a 	mov	r5,r23
 40418f8:	1021883a 	mov	r16,r2
 40418fc:	5009883a 	mov	r4,r10
 4041900:	4040ca80 	call	4040ca8 <__mulsi3>
 4041904:	d9c00517 	ldw	r7,20(sp)
 4041908:	da400317 	ldw	r9,12(sp)
 404190c:	d8c00217 	ldw	r3,8(sp)
 4041910:	3808d43a 	srli	r4,r7,16
 4041914:	1245883a 	add	r2,r2,r9
 4041918:	da000417 	ldw	r8,16(sp)
 404191c:	2085883a 	add	r2,r4,r2
 4041920:	1240022e 	bgeu	r2,r9,404192c <__divdf3+0x4b8>
 4041924:	01000074 	movhi	r4,1
 4041928:	8121883a 	add	r16,r16,r4
 404192c:	1008d43a 	srli	r4,r2,16
 4041930:	1004943a 	slli	r2,r2,16
 4041934:	39ffffcc 	andi	r7,r7,65535
 4041938:	2409883a 	add	r4,r4,r16
 404193c:	11c5883a 	add	r2,r2,r7
 4041940:	4100bb36 	bltu	r8,r4,4041c30 <__divdf3+0x7bc>
 4041944:	4100d726 	beq	r8,r4,4041ca4 <__divdf3+0x830>
 4041948:	4109c83a 	sub	r4,r8,r4
 404194c:	a8a1c83a 	sub	r16,r21,r2
 4041950:	ac2b803a 	cmpltu	r21,r21,r16
 4041954:	256bc83a 	sub	r21,r4,r21
 4041958:	b540d926 	beq	r22,r21,4041cc0 <__divdf3+0x84c>
 404195c:	a00b883a 	mov	r5,r20
 4041960:	a809883a 	mov	r4,r21
 4041964:	d8c00215 	stw	r3,8(sp)
 4041968:	4040bec0 	call	4040bec <__udivsi3>
 404196c:	100b883a 	mov	r5,r2
 4041970:	9009883a 	mov	r4,r18
 4041974:	d8800515 	stw	r2,20(sp)
 4041978:	4040ca80 	call	4040ca8 <__mulsi3>
 404197c:	a809883a 	mov	r4,r21
 4041980:	a00b883a 	mov	r5,r20
 4041984:	d8800415 	stw	r2,16(sp)
 4041988:	4040c500 	call	4040c50 <__umodsi3>
 404198c:	1004943a 	slli	r2,r2,16
 4041990:	8008d43a 	srli	r4,r16,16
 4041994:	da000417 	ldw	r8,16(sp)
 4041998:	d8c00217 	ldw	r3,8(sp)
 404199c:	2084b03a 	or	r2,r4,r2
 40419a0:	d9c00517 	ldw	r7,20(sp)
 40419a4:	1200062e 	bgeu	r2,r8,40419c0 <__divdf3+0x54c>
 40419a8:	1585883a 	add	r2,r2,r22
 40419ac:	393fffc4 	addi	r4,r7,-1
 40419b0:	1580c536 	bltu	r2,r22,4041cc8 <__divdf3+0x854>
 40419b4:	1200c42e 	bgeu	r2,r8,4041cc8 <__divdf3+0x854>
 40419b8:	39ffff84 	addi	r7,r7,-2
 40419bc:	1585883a 	add	r2,r2,r22
 40419c0:	122bc83a 	sub	r21,r2,r8
 40419c4:	a00b883a 	mov	r5,r20
 40419c8:	a809883a 	mov	r4,r21
 40419cc:	d8c00215 	stw	r3,8(sp)
 40419d0:	d9c00515 	stw	r7,20(sp)
 40419d4:	4040bec0 	call	4040bec <__udivsi3>
 40419d8:	9009883a 	mov	r4,r18
 40419dc:	100b883a 	mov	r5,r2
 40419e0:	d8800415 	stw	r2,16(sp)
 40419e4:	4040ca80 	call	4040ca8 <__mulsi3>
 40419e8:	a809883a 	mov	r4,r21
 40419ec:	a00b883a 	mov	r5,r20
 40419f0:	1025883a 	mov	r18,r2
 40419f4:	4040c500 	call	4040c50 <__umodsi3>
 40419f8:	1004943a 	slli	r2,r2,16
 40419fc:	813fffcc 	andi	r4,r16,65535
 4041a00:	d8c00217 	ldw	r3,8(sp)
 4041a04:	20a0b03a 	or	r16,r4,r2
 4041a08:	d9c00517 	ldw	r7,20(sp)
 4041a0c:	da000417 	ldw	r8,16(sp)
 4041a10:	8480062e 	bgeu	r16,r18,4041a2c <__divdf3+0x5b8>
 4041a14:	85a1883a 	add	r16,r16,r22
 4041a18:	40bfffc4 	addi	r2,r8,-1
 4041a1c:	8580ac36 	bltu	r16,r22,4041cd0 <__divdf3+0x85c>
 4041a20:	8480ab2e 	bgeu	r16,r18,4041cd0 <__divdf3+0x85c>
 4041a24:	423fff84 	addi	r8,r8,-2
 4041a28:	85a1883a 	add	r16,r16,r22
 4041a2c:	3804943a 	slli	r2,r7,16
 4041a30:	84a1c83a 	sub	r16,r16,r18
 4041a34:	e009883a 	mov	r4,fp
 4041a38:	1228b03a 	or	r20,r2,r8
 4041a3c:	a1ffffcc 	andi	r7,r20,65535
 4041a40:	a024d43a 	srli	r18,r20,16
 4041a44:	380b883a 	mov	r5,r7
 4041a48:	d8c00215 	stw	r3,8(sp)
 4041a4c:	d9c00515 	stw	r7,20(sp)
 4041a50:	4040ca80 	call	4040ca8 <__mulsi3>
 4041a54:	900b883a 	mov	r5,r18
 4041a58:	e009883a 	mov	r4,fp
 4041a5c:	102b883a 	mov	r21,r2
 4041a60:	4040ca80 	call	4040ca8 <__mulsi3>
 4041a64:	900b883a 	mov	r5,r18
 4041a68:	b809883a 	mov	r4,r23
 4041a6c:	1039883a 	mov	fp,r2
 4041a70:	4040ca80 	call	4040ca8 <__mulsi3>
 4041a74:	d9c00517 	ldw	r7,20(sp)
 4041a78:	b80b883a 	mov	r5,r23
 4041a7c:	1025883a 	mov	r18,r2
 4041a80:	3809883a 	mov	r4,r7
 4041a84:	4040ca80 	call	4040ca8 <__mulsi3>
 4041a88:	a808d43a 	srli	r4,r21,16
 4041a8c:	1705883a 	add	r2,r2,fp
 4041a90:	d8c00217 	ldw	r3,8(sp)
 4041a94:	2085883a 	add	r2,r4,r2
 4041a98:	1700022e 	bgeu	r2,fp,4041aa4 <__divdf3+0x630>
 4041a9c:	01000074 	movhi	r4,1
 4041aa0:	9125883a 	add	r18,r18,r4
 4041aa4:	1008d43a 	srli	r4,r2,16
 4041aa8:	1004943a 	slli	r2,r2,16
 4041aac:	ad7fffcc 	andi	r21,r21,65535
 4041ab0:	2489883a 	add	r4,r4,r18
 4041ab4:	1545883a 	add	r2,r2,r21
 4041ab8:	81003836 	bltu	r16,r4,4041b9c <__divdf3+0x728>
 4041abc:	81003626 	beq	r16,r4,4041b98 <__divdf3+0x724>
 4041ac0:	a5000054 	ori	r20,r20,1
 4041ac4:	1880ffc4 	addi	r2,r3,1023
 4041ac8:	00bf2e0e 	bge	zero,r2,4041784 <__flash_rwdata_start+0xffff0a1c>
 4041acc:	a10001cc 	andi	r4,r20,7
 4041ad0:	20000726 	beq	r4,zero,4041af0 <__divdf3+0x67c>
 4041ad4:	a10003cc 	andi	r4,r20,15
 4041ad8:	01400104 	movi	r5,4
 4041adc:	21400426 	beq	r4,r5,4041af0 <__divdf3+0x67c>
 4041ae0:	a149883a 	add	r4,r20,r5
 4041ae4:	2529803a 	cmpltu	r20,r4,r20
 4041ae8:	8d23883a 	add	r17,r17,r20
 4041aec:	2029883a 	mov	r20,r4
 4041af0:	8900402c 	andhi	r4,r17,256
 4041af4:	20000426 	beq	r4,zero,4041b08 <__divdf3+0x694>
 4041af8:	18810004 	addi	r2,r3,1024
 4041afc:	00ffc034 	movhi	r3,65280
 4041b00:	18ffffc4 	addi	r3,r3,-1
 4041b04:	88e2703a 	and	r17,r17,r3
 4041b08:	00c1ff84 	movi	r3,2046
 4041b0c:	18beb416 	blt	r3,r2,40415e0 <__flash_rwdata_start+0xffff0878>
 4041b10:	a028d0fa 	srli	r20,r20,3
 4041b14:	882a977a 	slli	r21,r17,29
 4041b18:	8820927a 	slli	r16,r17,9
 4041b1c:	1081ffcc 	andi	r2,r2,2047
 4041b20:	ad2ab03a 	or	r21,r21,r20
 4041b24:	8020d33a 	srli	r16,r16,12
 4041b28:	9900004c 	andi	r4,r19,1
 4041b2c:	003eb006 	br	40415f0 <__flash_rwdata_start+0xffff0888>
 4041b30:	8080022c 	andhi	r2,r16,8
 4041b34:	10001226 	beq	r2,zero,4041b80 <__divdf3+0x70c>
 4041b38:	8880022c 	andhi	r2,r17,8
 4041b3c:	1000101e 	bne	r2,zero,4041b80 <__divdf3+0x70c>
 4041b40:	00800434 	movhi	r2,16
 4041b44:	8c000234 	orhi	r16,r17,8
 4041b48:	10bfffc4 	addi	r2,r2,-1
 4041b4c:	b809883a 	mov	r4,r23
 4041b50:	80a0703a 	and	r16,r16,r2
 4041b54:	a02b883a 	mov	r21,r20
 4041b58:	003f0806 	br	404177c <__flash_rwdata_start+0xffff0a14>
 4041b5c:	008000c4 	movi	r2,3
 4041b60:	3880b126 	beq	r7,r2,4041e28 <__divdf3+0x9b4>
 4041b64:	00800044 	movi	r2,1
 4041b68:	38805b1e 	bne	r7,r2,4041cd8 <__divdf3+0x864>
 4041b6c:	e009883a 	mov	r4,fp
 4041b70:	0005883a 	mov	r2,zero
 4041b74:	0021883a 	mov	r16,zero
 4041b78:	002b883a 	mov	r21,zero
 4041b7c:	003e9c06 	br	40415f0 <__flash_rwdata_start+0xffff0888>
 4041b80:	00800434 	movhi	r2,16
 4041b84:	84000234 	orhi	r16,r16,8
 4041b88:	10bfffc4 	addi	r2,r2,-1
 4041b8c:	b009883a 	mov	r4,r22
 4041b90:	80a0703a 	and	r16,r16,r2
 4041b94:	003ef906 	br	404177c <__flash_rwdata_start+0xffff0a14>
 4041b98:	103fca26 	beq	r2,zero,4041ac4 <__flash_rwdata_start+0xffff0d5c>
 4041b9c:	b421883a 	add	r16,r22,r16
 4041ba0:	a17fffc4 	addi	r5,r20,-1
 4041ba4:	8580422e 	bgeu	r16,r22,4041cb0 <__divdf3+0x83c>
 4041ba8:	2829883a 	mov	r20,r5
 4041bac:	813fc41e 	bne	r16,r4,4041ac0 <__flash_rwdata_start+0xffff0d58>
 4041bb0:	d9800017 	ldw	r6,0(sp)
 4041bb4:	30bfc21e 	bne	r6,r2,4041ac0 <__flash_rwdata_start+0xffff0d58>
 4041bb8:	003fc206 	br	4041ac4 <__flash_rwdata_start+0xffff0d5c>
 4041bbc:	143ff604 	addi	r16,r2,-40
 4041bc0:	8c20983a 	sll	r16,r17,r16
 4041bc4:	002b883a 	mov	r21,zero
 4041bc8:	003eb406 	br	404169c <__flash_rwdata_start+0xffff0934>
 4041bcc:	d9800215 	stw	r6,8(sp)
 4041bd0:	d9c00515 	stw	r7,20(sp)
 4041bd4:	da000415 	stw	r8,16(sp)
 4041bd8:	404328c0 	call	404328c <__clzsi2>
 4041bdc:	10800804 	addi	r2,r2,32
 4041be0:	da000417 	ldw	r8,16(sp)
 4041be4:	d9c00517 	ldw	r7,20(sp)
 4041be8:	d9800217 	ldw	r6,8(sp)
 4041bec:	003ea106 	br	4041674 <__flash_rwdata_start+0xffff090c>
 4041bf0:	147ff604 	addi	r17,r2,-40
 4041bf4:	3462983a 	sll	r17,r6,r17
 4041bf8:	0029883a 	mov	r20,zero
 4041bfc:	003ec906 	br	4041724 <__flash_rwdata_start+0xffff09bc>
 4041c00:	3009883a 	mov	r4,r6
 4041c04:	d9400115 	stw	r5,4(sp)
 4041c08:	d9800215 	stw	r6,8(sp)
 4041c0c:	da000415 	stw	r8,16(sp)
 4041c10:	da400315 	stw	r9,12(sp)
 4041c14:	404328c0 	call	404328c <__clzsi2>
 4041c18:	10800804 	addi	r2,r2,32
 4041c1c:	da400317 	ldw	r9,12(sp)
 4041c20:	da000417 	ldw	r8,16(sp)
 4041c24:	d9800217 	ldw	r6,8(sp)
 4041c28:	d9400117 	ldw	r5,4(sp)
 4041c2c:	003eb306 	br	40416fc <__flash_rwdata_start+0xffff0994>
 4041c30:	d9800017 	ldw	r6,0(sp)
 4041c34:	a9ab883a 	add	r21,r21,r6
 4041c38:	a98b803a 	cmpltu	r5,r21,r6
 4041c3c:	2d8b883a 	add	r5,r5,r22
 4041c40:	2a11883a 	add	r8,r5,r8
 4041c44:	897fffc4 	addi	r5,r17,-1
 4041c48:	b2000c2e 	bgeu	r22,r8,4041c7c <__divdf3+0x808>
 4041c4c:	41003f36 	bltu	r8,r4,4041d4c <__divdf3+0x8d8>
 4041c50:	22006c26 	beq	r4,r8,4041e04 <__divdf3+0x990>
 4041c54:	4109c83a 	sub	r4,r8,r4
 4041c58:	2823883a 	mov	r17,r5
 4041c5c:	003f3b06 	br	404194c <__flash_rwdata_start+0xffff0be4>
 4041c60:	ad3ed336 	bltu	r21,r20,40417b0 <__flash_rwdata_start+0xffff0a48>
 4041c64:	a804d07a 	srli	r2,r21,1
 4041c68:	802e97fa 	slli	r23,r16,31
 4041c6c:	a82a97fa 	slli	r21,r21,31
 4041c70:	8020d07a 	srli	r16,r16,1
 4041c74:	b8aeb03a 	or	r23,r23,r2
 4041c78:	003ed006 	br	40417bc <__flash_rwdata_start+0xffff0a54>
 4041c7c:	b23ff51e 	bne	r22,r8,4041c54 <__flash_rwdata_start+0xffff0eec>
 4041c80:	d9800017 	ldw	r6,0(sp)
 4041c84:	a9bff12e 	bgeu	r21,r6,4041c4c <__flash_rwdata_start+0xffff0ee4>
 4041c88:	b109c83a 	sub	r4,r22,r4
 4041c8c:	2823883a 	mov	r17,r5
 4041c90:	003f2e06 	br	404194c <__flash_rwdata_start+0xffff0be4>
 4041c94:	2021883a 	mov	r16,r4
 4041c98:	003eff06 	br	4041898 <__flash_rwdata_start+0xffff0b30>
 4041c9c:	2023883a 	mov	r17,r4
 4041ca0:	003ee406 	br	4041834 <__flash_rwdata_start+0xffff0acc>
 4041ca4:	a8bfe236 	bltu	r21,r2,4041c30 <__flash_rwdata_start+0xffff0ec8>
 4041ca8:	0009883a 	mov	r4,zero
 4041cac:	003f2706 	br	404194c <__flash_rwdata_start+0xffff0be4>
 4041cb0:	81002d36 	bltu	r16,r4,4041d68 <__divdf3+0x8f4>
 4041cb4:	24005626 	beq	r4,r16,4041e10 <__divdf3+0x99c>
 4041cb8:	2829883a 	mov	r20,r5
 4041cbc:	003f8006 	br	4041ac0 <__flash_rwdata_start+0xffff0d58>
 4041cc0:	053fffc4 	movi	r20,-1
 4041cc4:	003f7f06 	br	4041ac4 <__flash_rwdata_start+0xffff0d5c>
 4041cc8:	200f883a 	mov	r7,r4
 4041ccc:	003f3c06 	br	40419c0 <__flash_rwdata_start+0xffff0c58>
 4041cd0:	1011883a 	mov	r8,r2
 4041cd4:	003f5506 	br	4041a2c <__flash_rwdata_start+0xffff0cc4>
 4041cd8:	e027883a 	mov	r19,fp
 4041cdc:	003f7906 	br	4041ac4 <__flash_rwdata_start+0xffff0d5c>
 4041ce0:	010007c4 	movi	r4,31
 4041ce4:	20c02816 	blt	r4,r3,4041d88 <__divdf3+0x914>
 4041ce8:	00800804 	movi	r2,32
 4041cec:	10c5c83a 	sub	r2,r2,r3
 4041cf0:	888a983a 	sll	r5,r17,r2
 4041cf4:	a0c8d83a 	srl	r4,r20,r3
 4041cf8:	a084983a 	sll	r2,r20,r2
 4041cfc:	88e2d83a 	srl	r17,r17,r3
 4041d00:	2906b03a 	or	r3,r5,r4
 4041d04:	1004c03a 	cmpne	r2,r2,zero
 4041d08:	1886b03a 	or	r3,r3,r2
 4041d0c:	188001cc 	andi	r2,r3,7
 4041d10:	10000726 	beq	r2,zero,4041d30 <__divdf3+0x8bc>
 4041d14:	188003cc 	andi	r2,r3,15
 4041d18:	01000104 	movi	r4,4
 4041d1c:	11000426 	beq	r2,r4,4041d30 <__divdf3+0x8bc>
 4041d20:	1805883a 	mov	r2,r3
 4041d24:	10c00104 	addi	r3,r2,4
 4041d28:	1885803a 	cmpltu	r2,r3,r2
 4041d2c:	88a3883a 	add	r17,r17,r2
 4041d30:	8880202c 	andhi	r2,r17,128
 4041d34:	10002926 	beq	r2,zero,4041ddc <__divdf3+0x968>
 4041d38:	9900004c 	andi	r4,r19,1
 4041d3c:	00800044 	movi	r2,1
 4041d40:	0021883a 	mov	r16,zero
 4041d44:	002b883a 	mov	r21,zero
 4041d48:	003e2906 	br	40415f0 <__flash_rwdata_start+0xffff0888>
 4041d4c:	d9800017 	ldw	r6,0(sp)
 4041d50:	8c7fff84 	addi	r17,r17,-2
 4041d54:	a9ab883a 	add	r21,r21,r6
 4041d58:	a98b803a 	cmpltu	r5,r21,r6
 4041d5c:	2d8b883a 	add	r5,r5,r22
 4041d60:	2a11883a 	add	r8,r5,r8
 4041d64:	003ef806 	br	4041948 <__flash_rwdata_start+0xffff0be0>
 4041d68:	d9800017 	ldw	r6,0(sp)
 4041d6c:	318f883a 	add	r7,r6,r6
 4041d70:	398b803a 	cmpltu	r5,r7,r6
 4041d74:	2d8d883a 	add	r6,r5,r22
 4041d78:	81a1883a 	add	r16,r16,r6
 4041d7c:	a17fff84 	addi	r5,r20,-2
 4041d80:	d9c00015 	stw	r7,0(sp)
 4041d84:	003f8806 	br	4041ba8 <__flash_rwdata_start+0xffff0e40>
 4041d88:	013ff844 	movi	r4,-31
 4041d8c:	2085c83a 	sub	r2,r4,r2
 4041d90:	8888d83a 	srl	r4,r17,r2
 4041d94:	00800804 	movi	r2,32
 4041d98:	18802126 	beq	r3,r2,4041e20 <__divdf3+0x9ac>
 4041d9c:	04001004 	movi	r16,64
 4041da0:	80c7c83a 	sub	r3,r16,r3
 4041da4:	88e0983a 	sll	r16,r17,r3
 4041da8:	8504b03a 	or	r2,r16,r20
 4041dac:	1004c03a 	cmpne	r2,r2,zero
 4041db0:	2084b03a 	or	r2,r4,r2
 4041db4:	144001cc 	andi	r17,r2,7
 4041db8:	88000d1e 	bne	r17,zero,4041df0 <__divdf3+0x97c>
 4041dbc:	0021883a 	mov	r16,zero
 4041dc0:	102ad0fa 	srli	r21,r2,3
 4041dc4:	9900004c 	andi	r4,r19,1
 4041dc8:	0005883a 	mov	r2,zero
 4041dcc:	ac6ab03a 	or	r21,r21,r17
 4041dd0:	003e0706 	br	40415f0 <__flash_rwdata_start+0xffff0888>
 4041dd4:	1007883a 	mov	r3,r2
 4041dd8:	0023883a 	mov	r17,zero
 4041ddc:	8820927a 	slli	r16,r17,9
 4041de0:	1805883a 	mov	r2,r3
 4041de4:	8822977a 	slli	r17,r17,29
 4041de8:	8020d33a 	srli	r16,r16,12
 4041dec:	003ff406 	br	4041dc0 <__flash_rwdata_start+0xffff1058>
 4041df0:	10c003cc 	andi	r3,r2,15
 4041df4:	01000104 	movi	r4,4
 4041df8:	193ff626 	beq	r3,r4,4041dd4 <__flash_rwdata_start+0xffff106c>
 4041dfc:	0023883a 	mov	r17,zero
 4041e00:	003fc806 	br	4041d24 <__flash_rwdata_start+0xffff0fbc>
 4041e04:	a8bfd136 	bltu	r21,r2,4041d4c <__flash_rwdata_start+0xffff0fe4>
 4041e08:	2823883a 	mov	r17,r5
 4041e0c:	003fa606 	br	4041ca8 <__flash_rwdata_start+0xffff0f40>
 4041e10:	d9800017 	ldw	r6,0(sp)
 4041e14:	30bfd436 	bltu	r6,r2,4041d68 <__flash_rwdata_start+0xffff1000>
 4041e18:	2829883a 	mov	r20,r5
 4041e1c:	003f6406 	br	4041bb0 <__flash_rwdata_start+0xffff0e48>
 4041e20:	0021883a 	mov	r16,zero
 4041e24:	003fe006 	br	4041da8 <__flash_rwdata_start+0xffff1040>
 4041e28:	00800434 	movhi	r2,16
 4041e2c:	8c000234 	orhi	r16,r17,8
 4041e30:	10bfffc4 	addi	r2,r2,-1
 4041e34:	e009883a 	mov	r4,fp
 4041e38:	80a0703a 	and	r16,r16,r2
 4041e3c:	a02b883a 	mov	r21,r20
 4041e40:	003e4e06 	br	404177c <__flash_rwdata_start+0xffff0a14>

04041e44 <__gedf2>:
 4041e44:	2804d53a 	srli	r2,r5,20
 4041e48:	3806d53a 	srli	r3,r7,20
 4041e4c:	02000434 	movhi	r8,16
 4041e50:	423fffc4 	addi	r8,r8,-1
 4041e54:	1081ffcc 	andi	r2,r2,2047
 4041e58:	0241ffc4 	movi	r9,2047
 4041e5c:	2a14703a 	and	r10,r5,r8
 4041e60:	18c1ffcc 	andi	r3,r3,2047
 4041e64:	3a10703a 	and	r8,r7,r8
 4041e68:	280ad7fa 	srli	r5,r5,31
 4041e6c:	380ed7fa 	srli	r7,r7,31
 4041e70:	12401d26 	beq	r2,r9,4041ee8 <__gedf2+0xa4>
 4041e74:	0241ffc4 	movi	r9,2047
 4041e78:	1a401226 	beq	r3,r9,4041ec4 <__gedf2+0x80>
 4041e7c:	1000081e 	bne	r2,zero,4041ea0 <__gedf2+0x5c>
 4041e80:	2296b03a 	or	r11,r4,r10
 4041e84:	5813003a 	cmpeq	r9,r11,zero
 4041e88:	1800091e 	bne	r3,zero,4041eb0 <__gedf2+0x6c>
 4041e8c:	3218b03a 	or	r12,r6,r8
 4041e90:	6000071e 	bne	r12,zero,4041eb0 <__gedf2+0x6c>
 4041e94:	0005883a 	mov	r2,zero
 4041e98:	5800101e 	bne	r11,zero,4041edc <__gedf2+0x98>
 4041e9c:	f800283a 	ret
 4041ea0:	18000c1e 	bne	r3,zero,4041ed4 <__gedf2+0x90>
 4041ea4:	3212b03a 	or	r9,r6,r8
 4041ea8:	48000c26 	beq	r9,zero,4041edc <__gedf2+0x98>
 4041eac:	0013883a 	mov	r9,zero
 4041eb0:	39c03fcc 	andi	r7,r7,255
 4041eb4:	48000826 	beq	r9,zero,4041ed8 <__gedf2+0x94>
 4041eb8:	38000926 	beq	r7,zero,4041ee0 <__gedf2+0x9c>
 4041ebc:	00800044 	movi	r2,1
 4041ec0:	f800283a 	ret
 4041ec4:	3212b03a 	or	r9,r6,r8
 4041ec8:	483fec26 	beq	r9,zero,4041e7c <__flash_rwdata_start+0xffff1114>
 4041ecc:	00bfff84 	movi	r2,-2
 4041ed0:	f800283a 	ret
 4041ed4:	39c03fcc 	andi	r7,r7,255
 4041ed8:	29c00626 	beq	r5,r7,4041ef4 <__gedf2+0xb0>
 4041edc:	283ff726 	beq	r5,zero,4041ebc <__flash_rwdata_start+0xffff1154>
 4041ee0:	00bfffc4 	movi	r2,-1
 4041ee4:	f800283a 	ret
 4041ee8:	2292b03a 	or	r9,r4,r10
 4041eec:	483fe126 	beq	r9,zero,4041e74 <__flash_rwdata_start+0xffff110c>
 4041ef0:	003ff606 	br	4041ecc <__flash_rwdata_start+0xffff1164>
 4041ef4:	18bff916 	blt	r3,r2,4041edc <__flash_rwdata_start+0xffff1174>
 4041ef8:	10c00316 	blt	r2,r3,4041f08 <__gedf2+0xc4>
 4041efc:	42bff736 	bltu	r8,r10,4041edc <__flash_rwdata_start+0xffff1174>
 4041f00:	52000326 	beq	r10,r8,4041f10 <__gedf2+0xcc>
 4041f04:	5200042e 	bgeu	r10,r8,4041f18 <__gedf2+0xd4>
 4041f08:	283fec1e 	bne	r5,zero,4041ebc <__flash_rwdata_start+0xffff1154>
 4041f0c:	003ff406 	br	4041ee0 <__flash_rwdata_start+0xffff1178>
 4041f10:	313ff236 	bltu	r6,r4,4041edc <__flash_rwdata_start+0xffff1174>
 4041f14:	21bffc36 	bltu	r4,r6,4041f08 <__flash_rwdata_start+0xffff11a0>
 4041f18:	0005883a 	mov	r2,zero
 4041f1c:	f800283a 	ret

04041f20 <__muldf3>:
 4041f20:	deffee04 	addi	sp,sp,-72
 4041f24:	dd000c15 	stw	r20,48(sp)
 4041f28:	2828d53a 	srli	r20,r5,20
 4041f2c:	ddc00f15 	stw	r23,60(sp)
 4041f30:	282ed7fa 	srli	r23,r5,31
 4041f34:	dc000815 	stw	r16,32(sp)
 4041f38:	04000434 	movhi	r16,16
 4041f3c:	dcc00b15 	stw	r19,44(sp)
 4041f40:	843fffc4 	addi	r16,r16,-1
 4041f44:	dfc01115 	stw	ra,68(sp)
 4041f48:	df001015 	stw	fp,64(sp)
 4041f4c:	dd800e15 	stw	r22,56(sp)
 4041f50:	dd400d15 	stw	r21,52(sp)
 4041f54:	dc800a15 	stw	r18,40(sp)
 4041f58:	dc400915 	stw	r17,36(sp)
 4041f5c:	a501ffcc 	andi	r20,r20,2047
 4041f60:	2c20703a 	and	r16,r5,r16
 4041f64:	b827883a 	mov	r19,r23
 4041f68:	ba403fcc 	andi	r9,r23,255
 4041f6c:	a0006026 	beq	r20,zero,40420f0 <__muldf3+0x1d0>
 4041f70:	0081ffc4 	movi	r2,2047
 4041f74:	202d883a 	mov	r22,r4
 4041f78:	a0803626 	beq	r20,r2,4042054 <__muldf3+0x134>
 4041f7c:	84000434 	orhi	r16,r16,16
 4041f80:	200ad77a 	srli	r5,r4,29
 4041f84:	800490fa 	slli	r2,r16,3
 4041f88:	202c90fa 	slli	r22,r4,3
 4041f8c:	a53f0044 	addi	r20,r20,-1023
 4041f90:	28a0b03a 	or	r16,r5,r2
 4041f94:	002b883a 	mov	r21,zero
 4041f98:	000b883a 	mov	r5,zero
 4041f9c:	3804d53a 	srli	r2,r7,20
 4041fa0:	3838d7fa 	srli	fp,r7,31
 4041fa4:	04400434 	movhi	r17,16
 4041fa8:	8c7fffc4 	addi	r17,r17,-1
 4041fac:	1081ffcc 	andi	r2,r2,2047
 4041fb0:	3025883a 	mov	r18,r6
 4041fb4:	3c62703a 	and	r17,r7,r17
 4041fb8:	e2803fcc 	andi	r10,fp,255
 4041fbc:	10006d26 	beq	r2,zero,4042174 <__muldf3+0x254>
 4041fc0:	00c1ffc4 	movi	r3,2047
 4041fc4:	10c06526 	beq	r2,r3,404215c <__muldf3+0x23c>
 4041fc8:	8c400434 	orhi	r17,r17,16
 4041fcc:	300ed77a 	srli	r7,r6,29
 4041fd0:	880690fa 	slli	r3,r17,3
 4041fd4:	302490fa 	slli	r18,r6,3
 4041fd8:	10bf0044 	addi	r2,r2,-1023
 4041fdc:	38e2b03a 	or	r17,r7,r3
 4041fe0:	000f883a 	mov	r7,zero
 4041fe4:	a087883a 	add	r3,r20,r2
 4041fe8:	010003c4 	movi	r4,15
 4041fec:	3d44b03a 	or	r2,r7,r21
 4041ff0:	e5ccf03a 	xor	r6,fp,r23
 4041ff4:	1a000044 	addi	r8,r3,1
 4041ff8:	20809b36 	bltu	r4,r2,4042268 <__muldf3+0x348>
 4041ffc:	100490ba 	slli	r2,r2,2
 4042000:	01010134 	movhi	r4,1028
 4042004:	21080504 	addi	r4,r4,8212
 4042008:	1105883a 	add	r2,r2,r4
 404200c:	10800017 	ldw	r2,0(r2)
 4042010:	1000683a 	jmp	r2
 4042014:	04042268 	cmpgeui	r16,zero,4233
 4042018:	04042074 	movhi	r16,4225
 404201c:	04042074 	movhi	r16,4225
 4042020:	04042070 	cmpltui	r16,zero,4225
 4042024:	04042244 	movi	r16,4233
 4042028:	04042244 	movi	r16,4233
 404202c:	0404222c 	andhi	r16,zero,4232
 4042030:	04042070 	cmpltui	r16,zero,4225
 4042034:	04042244 	movi	r16,4233
 4042038:	0404222c 	andhi	r16,zero,4232
 404203c:	04042244 	movi	r16,4233
 4042040:	04042070 	cmpltui	r16,zero,4225
 4042044:	04042254 	movui	r16,4233
 4042048:	04042254 	movui	r16,4233
 404204c:	04042254 	movui	r16,4233
 4042050:	040425b4 	movhi	r16,4246
 4042054:	2404b03a 	or	r2,r4,r16
 4042058:	1000711e 	bne	r2,zero,4042220 <__muldf3+0x300>
 404205c:	05400204 	movi	r21,8
 4042060:	0021883a 	mov	r16,zero
 4042064:	002d883a 	mov	r22,zero
 4042068:	01400084 	movi	r5,2
 404206c:	003fcb06 	br	4041f9c <__flash_rwdata_start+0xffff1234>
 4042070:	500d883a 	mov	r6,r10
 4042074:	00800084 	movi	r2,2
 4042078:	38805926 	beq	r7,r2,40421e0 <__muldf3+0x2c0>
 404207c:	008000c4 	movi	r2,3
 4042080:	3881bb26 	beq	r7,r2,4042770 <__muldf3+0x850>
 4042084:	00800044 	movi	r2,1
 4042088:	3881961e 	bne	r7,r2,40426e4 <__muldf3+0x7c4>
 404208c:	3027883a 	mov	r19,r6
 4042090:	0005883a 	mov	r2,zero
 4042094:	0021883a 	mov	r16,zero
 4042098:	002d883a 	mov	r22,zero
 404209c:	1004953a 	slli	r2,r2,20
 40420a0:	98c03fcc 	andi	r3,r19,255
 40420a4:	04400434 	movhi	r17,16
 40420a8:	8c7fffc4 	addi	r17,r17,-1
 40420ac:	180697fa 	slli	r3,r3,31
 40420b0:	8460703a 	and	r16,r16,r17
 40420b4:	80a0b03a 	or	r16,r16,r2
 40420b8:	80c6b03a 	or	r3,r16,r3
 40420bc:	b005883a 	mov	r2,r22
 40420c0:	dfc01117 	ldw	ra,68(sp)
 40420c4:	df001017 	ldw	fp,64(sp)
 40420c8:	ddc00f17 	ldw	r23,60(sp)
 40420cc:	dd800e17 	ldw	r22,56(sp)
 40420d0:	dd400d17 	ldw	r21,52(sp)
 40420d4:	dd000c17 	ldw	r20,48(sp)
 40420d8:	dcc00b17 	ldw	r19,44(sp)
 40420dc:	dc800a17 	ldw	r18,40(sp)
 40420e0:	dc400917 	ldw	r17,36(sp)
 40420e4:	dc000817 	ldw	r16,32(sp)
 40420e8:	dec01204 	addi	sp,sp,72
 40420ec:	f800283a 	ret
 40420f0:	2404b03a 	or	r2,r4,r16
 40420f4:	202b883a 	mov	r21,r4
 40420f8:	10004426 	beq	r2,zero,404220c <__muldf3+0x2ec>
 40420fc:	80015126 	beq	r16,zero,4042644 <__muldf3+0x724>
 4042100:	8009883a 	mov	r4,r16
 4042104:	d9800715 	stw	r6,28(sp)
 4042108:	d9c00215 	stw	r7,8(sp)
 404210c:	da400415 	stw	r9,16(sp)
 4042110:	404328c0 	call	404328c <__clzsi2>
 4042114:	d9800717 	ldw	r6,28(sp)
 4042118:	d9c00217 	ldw	r7,8(sp)
 404211c:	da400417 	ldw	r9,16(sp)
 4042120:	113ffd44 	addi	r4,r2,-11
 4042124:	00c00704 	movi	r3,28
 4042128:	19014216 	blt	r3,r4,4042634 <__muldf3+0x714>
 404212c:	00c00744 	movi	r3,29
 4042130:	15bffe04 	addi	r22,r2,-8
 4042134:	1907c83a 	sub	r3,r3,r4
 4042138:	85a0983a 	sll	r16,r16,r22
 404213c:	a8c6d83a 	srl	r3,r21,r3
 4042140:	adac983a 	sll	r22,r21,r22
 4042144:	1c20b03a 	or	r16,r3,r16
 4042148:	1080fcc4 	addi	r2,r2,1011
 404214c:	00a9c83a 	sub	r20,zero,r2
 4042150:	002b883a 	mov	r21,zero
 4042154:	000b883a 	mov	r5,zero
 4042158:	003f9006 	br	4041f9c <__flash_rwdata_start+0xffff1234>
 404215c:	3446b03a 	or	r3,r6,r17
 4042160:	1800281e 	bne	r3,zero,4042204 <__muldf3+0x2e4>
 4042164:	0023883a 	mov	r17,zero
 4042168:	0025883a 	mov	r18,zero
 404216c:	01c00084 	movi	r7,2
 4042170:	003f9c06 	br	4041fe4 <__flash_rwdata_start+0xffff127c>
 4042174:	3446b03a 	or	r3,r6,r17
 4042178:	18001e26 	beq	r3,zero,40421f4 <__muldf3+0x2d4>
 404217c:	88012126 	beq	r17,zero,4042604 <__muldf3+0x6e4>
 4042180:	8809883a 	mov	r4,r17
 4042184:	d9400215 	stw	r5,8(sp)
 4042188:	d9800715 	stw	r6,28(sp)
 404218c:	da400415 	stw	r9,16(sp)
 4042190:	da800315 	stw	r10,12(sp)
 4042194:	404328c0 	call	404328c <__clzsi2>
 4042198:	d9400217 	ldw	r5,8(sp)
 404219c:	d9800717 	ldw	r6,28(sp)
 40421a0:	da400417 	ldw	r9,16(sp)
 40421a4:	da800317 	ldw	r10,12(sp)
 40421a8:	113ffd44 	addi	r4,r2,-11
 40421ac:	00c00704 	movi	r3,28
 40421b0:	19011016 	blt	r3,r4,40425f4 <__muldf3+0x6d4>
 40421b4:	00c00744 	movi	r3,29
 40421b8:	14bffe04 	addi	r18,r2,-8
 40421bc:	1907c83a 	sub	r3,r3,r4
 40421c0:	8ca2983a 	sll	r17,r17,r18
 40421c4:	30c6d83a 	srl	r3,r6,r3
 40421c8:	34a4983a 	sll	r18,r6,r18
 40421cc:	1c62b03a 	or	r17,r3,r17
 40421d0:	1080fcc4 	addi	r2,r2,1011
 40421d4:	0085c83a 	sub	r2,zero,r2
 40421d8:	000f883a 	mov	r7,zero
 40421dc:	003f8106 	br	4041fe4 <__flash_rwdata_start+0xffff127c>
 40421e0:	3027883a 	mov	r19,r6
 40421e4:	0081ffc4 	movi	r2,2047
 40421e8:	0021883a 	mov	r16,zero
 40421ec:	002d883a 	mov	r22,zero
 40421f0:	003faa06 	br	404209c <__flash_rwdata_start+0xffff1334>
 40421f4:	0023883a 	mov	r17,zero
 40421f8:	0025883a 	mov	r18,zero
 40421fc:	01c00044 	movi	r7,1
 4042200:	003f7806 	br	4041fe4 <__flash_rwdata_start+0xffff127c>
 4042204:	01c000c4 	movi	r7,3
 4042208:	003f7606 	br	4041fe4 <__flash_rwdata_start+0xffff127c>
 404220c:	05400104 	movi	r21,4
 4042210:	0021883a 	mov	r16,zero
 4042214:	002d883a 	mov	r22,zero
 4042218:	01400044 	movi	r5,1
 404221c:	003f5f06 	br	4041f9c <__flash_rwdata_start+0xffff1234>
 4042220:	05400304 	movi	r21,12
 4042224:	014000c4 	movi	r5,3
 4042228:	003f5c06 	br	4041f9c <__flash_rwdata_start+0xffff1234>
 404222c:	04000434 	movhi	r16,16
 4042230:	0027883a 	mov	r19,zero
 4042234:	843fffc4 	addi	r16,r16,-1
 4042238:	05bfffc4 	movi	r22,-1
 404223c:	0081ffc4 	movi	r2,2047
 4042240:	003f9606 	br	404209c <__flash_rwdata_start+0xffff1334>
 4042244:	8023883a 	mov	r17,r16
 4042248:	b025883a 	mov	r18,r22
 404224c:	280f883a 	mov	r7,r5
 4042250:	003f8806 	br	4042074 <__flash_rwdata_start+0xffff130c>
 4042254:	8023883a 	mov	r17,r16
 4042258:	b025883a 	mov	r18,r22
 404225c:	480d883a 	mov	r6,r9
 4042260:	280f883a 	mov	r7,r5
 4042264:	003f8306 	br	4042074 <__flash_rwdata_start+0xffff130c>
 4042268:	b026d43a 	srli	r19,r22,16
 404226c:	902ed43a 	srli	r23,r18,16
 4042270:	b5bfffcc 	andi	r22,r22,65535
 4042274:	94bfffcc 	andi	r18,r18,65535
 4042278:	b00b883a 	mov	r5,r22
 404227c:	9009883a 	mov	r4,r18
 4042280:	d8c00515 	stw	r3,20(sp)
 4042284:	d9800715 	stw	r6,28(sp)
 4042288:	da000615 	stw	r8,24(sp)
 404228c:	4040ca80 	call	4040ca8 <__mulsi3>
 4042290:	980b883a 	mov	r5,r19
 4042294:	9009883a 	mov	r4,r18
 4042298:	1029883a 	mov	r20,r2
 404229c:	4040ca80 	call	4040ca8 <__mulsi3>
 40422a0:	b80b883a 	mov	r5,r23
 40422a4:	9809883a 	mov	r4,r19
 40422a8:	102b883a 	mov	r21,r2
 40422ac:	4040ca80 	call	4040ca8 <__mulsi3>
 40422b0:	b809883a 	mov	r4,r23
 40422b4:	b00b883a 	mov	r5,r22
 40422b8:	1039883a 	mov	fp,r2
 40422bc:	4040ca80 	call	4040ca8 <__mulsi3>
 40422c0:	a008d43a 	srli	r4,r20,16
 40422c4:	1545883a 	add	r2,r2,r21
 40422c8:	d8c00517 	ldw	r3,20(sp)
 40422cc:	2085883a 	add	r2,r4,r2
 40422d0:	d9800717 	ldw	r6,28(sp)
 40422d4:	da000617 	ldw	r8,24(sp)
 40422d8:	1540022e 	bgeu	r2,r21,40422e4 <__muldf3+0x3c4>
 40422dc:	01000074 	movhi	r4,1
 40422e0:	e139883a 	add	fp,fp,r4
 40422e4:	100e943a 	slli	r7,r2,16
 40422e8:	1004d43a 	srli	r2,r2,16
 40422ec:	882ad43a 	srli	r21,r17,16
 40422f0:	a53fffcc 	andi	r20,r20,65535
 40422f4:	8c7fffcc 	andi	r17,r17,65535
 40422f8:	3d29883a 	add	r20,r7,r20
 40422fc:	b00b883a 	mov	r5,r22
 4042300:	8809883a 	mov	r4,r17
 4042304:	d8c00515 	stw	r3,20(sp)
 4042308:	d9800715 	stw	r6,28(sp)
 404230c:	da000615 	stw	r8,24(sp)
 4042310:	dd000115 	stw	r20,4(sp)
 4042314:	d8800015 	stw	r2,0(sp)
 4042318:	4040ca80 	call	4040ca8 <__mulsi3>
 404231c:	980b883a 	mov	r5,r19
 4042320:	8809883a 	mov	r4,r17
 4042324:	d8800215 	stw	r2,8(sp)
 4042328:	4040ca80 	call	4040ca8 <__mulsi3>
 404232c:	9809883a 	mov	r4,r19
 4042330:	a80b883a 	mov	r5,r21
 4042334:	1029883a 	mov	r20,r2
 4042338:	4040ca80 	call	4040ca8 <__mulsi3>
 404233c:	b00b883a 	mov	r5,r22
 4042340:	a809883a 	mov	r4,r21
 4042344:	d8800415 	stw	r2,16(sp)
 4042348:	4040ca80 	call	4040ca8 <__mulsi3>
 404234c:	d9c00217 	ldw	r7,8(sp)
 4042350:	1505883a 	add	r2,r2,r20
 4042354:	d8c00517 	ldw	r3,20(sp)
 4042358:	3826d43a 	srli	r19,r7,16
 404235c:	d9800717 	ldw	r6,28(sp)
 4042360:	da000617 	ldw	r8,24(sp)
 4042364:	9885883a 	add	r2,r19,r2
 4042368:	da400417 	ldw	r9,16(sp)
 404236c:	1500022e 	bgeu	r2,r20,4042378 <__muldf3+0x458>
 4042370:	01000074 	movhi	r4,1
 4042374:	4913883a 	add	r9,r9,r4
 4042378:	1028d43a 	srli	r20,r2,16
 404237c:	1004943a 	slli	r2,r2,16
 4042380:	802cd43a 	srli	r22,r16,16
 4042384:	843fffcc 	andi	r16,r16,65535
 4042388:	3cffffcc 	andi	r19,r7,65535
 404238c:	9009883a 	mov	r4,r18
 4042390:	800b883a 	mov	r5,r16
 4042394:	a269883a 	add	r20,r20,r9
 4042398:	d8c00515 	stw	r3,20(sp)
 404239c:	d9800715 	stw	r6,28(sp)
 40423a0:	da000615 	stw	r8,24(sp)
 40423a4:	14e7883a 	add	r19,r2,r19
 40423a8:	4040ca80 	call	4040ca8 <__mulsi3>
 40423ac:	9009883a 	mov	r4,r18
 40423b0:	b00b883a 	mov	r5,r22
 40423b4:	d8800315 	stw	r2,12(sp)
 40423b8:	4040ca80 	call	4040ca8 <__mulsi3>
 40423bc:	b809883a 	mov	r4,r23
 40423c0:	b00b883a 	mov	r5,r22
 40423c4:	d8800215 	stw	r2,8(sp)
 40423c8:	4040ca80 	call	4040ca8 <__mulsi3>
 40423cc:	b80b883a 	mov	r5,r23
 40423d0:	8009883a 	mov	r4,r16
 40423d4:	d8800415 	stw	r2,16(sp)
 40423d8:	4040ca80 	call	4040ca8 <__mulsi3>
 40423dc:	da800317 	ldw	r10,12(sp)
 40423e0:	d9c00217 	ldw	r7,8(sp)
 40423e4:	d9000017 	ldw	r4,0(sp)
 40423e8:	502ed43a 	srli	r23,r10,16
 40423ec:	11c5883a 	add	r2,r2,r7
 40423f0:	24e5883a 	add	r18,r4,r19
 40423f4:	b885883a 	add	r2,r23,r2
 40423f8:	d8c00517 	ldw	r3,20(sp)
 40423fc:	d9800717 	ldw	r6,28(sp)
 4042400:	da000617 	ldw	r8,24(sp)
 4042404:	da400417 	ldw	r9,16(sp)
 4042408:	11c0022e 	bgeu	r2,r7,4042414 <__muldf3+0x4f4>
 404240c:	01000074 	movhi	r4,1
 4042410:	4913883a 	add	r9,r9,r4
 4042414:	100ed43a 	srli	r7,r2,16
 4042418:	1004943a 	slli	r2,r2,16
 404241c:	55ffffcc 	andi	r23,r10,65535
 4042420:	3a53883a 	add	r9,r7,r9
 4042424:	8809883a 	mov	r4,r17
 4042428:	800b883a 	mov	r5,r16
 404242c:	d8c00515 	stw	r3,20(sp)
 4042430:	d9800715 	stw	r6,28(sp)
 4042434:	da000615 	stw	r8,24(sp)
 4042438:	da400415 	stw	r9,16(sp)
 404243c:	15ef883a 	add	r23,r2,r23
 4042440:	4040ca80 	call	4040ca8 <__mulsi3>
 4042444:	8809883a 	mov	r4,r17
 4042448:	b00b883a 	mov	r5,r22
 404244c:	d8800215 	stw	r2,8(sp)
 4042450:	4040ca80 	call	4040ca8 <__mulsi3>
 4042454:	b00b883a 	mov	r5,r22
 4042458:	a809883a 	mov	r4,r21
 404245c:	d8800315 	stw	r2,12(sp)
 4042460:	4040ca80 	call	4040ca8 <__mulsi3>
 4042464:	8009883a 	mov	r4,r16
 4042468:	a80b883a 	mov	r5,r21
 404246c:	1023883a 	mov	r17,r2
 4042470:	4040ca80 	call	4040ca8 <__mulsi3>
 4042474:	d9c00217 	ldw	r7,8(sp)
 4042478:	da800317 	ldw	r10,12(sp)
 404247c:	d8c00517 	ldw	r3,20(sp)
 4042480:	3808d43a 	srli	r4,r7,16
 4042484:	1285883a 	add	r2,r2,r10
 4042488:	d9800717 	ldw	r6,28(sp)
 404248c:	2085883a 	add	r2,r4,r2
 4042490:	da000617 	ldw	r8,24(sp)
 4042494:	da400417 	ldw	r9,16(sp)
 4042498:	1280022e 	bgeu	r2,r10,40424a4 <__muldf3+0x584>
 404249c:	01000074 	movhi	r4,1
 40424a0:	8923883a 	add	r17,r17,r4
 40424a4:	1008943a 	slli	r4,r2,16
 40424a8:	39ffffcc 	andi	r7,r7,65535
 40424ac:	e4b9883a 	add	fp,fp,r18
 40424b0:	21cf883a 	add	r7,r4,r7
 40424b4:	e4e7803a 	cmpltu	r19,fp,r19
 40424b8:	3d0f883a 	add	r7,r7,r20
 40424bc:	bf39883a 	add	fp,r23,fp
 40424c0:	99c9883a 	add	r4,r19,r7
 40424c4:	e5ef803a 	cmpltu	r23,fp,r23
 40424c8:	490b883a 	add	r5,r9,r4
 40424cc:	1004d43a 	srli	r2,r2,16
 40424d0:	b965883a 	add	r18,r23,r5
 40424d4:	24c9803a 	cmpltu	r4,r4,r19
 40424d8:	3d29803a 	cmpltu	r20,r7,r20
 40424dc:	a128b03a 	or	r20,r20,r4
 40424e0:	95ef803a 	cmpltu	r23,r18,r23
 40424e4:	2a53803a 	cmpltu	r9,r5,r9
 40424e8:	a0a9883a 	add	r20,r20,r2
 40424ec:	4deeb03a 	or	r23,r9,r23
 40424f0:	a5ef883a 	add	r23,r20,r23
 40424f4:	bc63883a 	add	r17,r23,r17
 40424f8:	e004927a 	slli	r2,fp,9
 40424fc:	d9000117 	ldw	r4,4(sp)
 4042500:	882e927a 	slli	r23,r17,9
 4042504:	9022d5fa 	srli	r17,r18,23
 4042508:	e038d5fa 	srli	fp,fp,23
 404250c:	1104b03a 	or	r2,r2,r4
 4042510:	9024927a 	slli	r18,r18,9
 4042514:	1004c03a 	cmpne	r2,r2,zero
 4042518:	bc62b03a 	or	r17,r23,r17
 404251c:	1738b03a 	or	fp,r2,fp
 4042520:	8880402c 	andhi	r2,r17,256
 4042524:	e4a4b03a 	or	r18,fp,r18
 4042528:	10000726 	beq	r2,zero,4042548 <__muldf3+0x628>
 404252c:	9006d07a 	srli	r3,r18,1
 4042530:	880497fa 	slli	r2,r17,31
 4042534:	9480004c 	andi	r18,r18,1
 4042538:	8822d07a 	srli	r17,r17,1
 404253c:	1ca4b03a 	or	r18,r3,r18
 4042540:	14a4b03a 	or	r18,r2,r18
 4042544:	4007883a 	mov	r3,r8
 4042548:	1880ffc4 	addi	r2,r3,1023
 404254c:	0080460e 	bge	zero,r2,4042668 <__muldf3+0x748>
 4042550:	910001cc 	andi	r4,r18,7
 4042554:	20000726 	beq	r4,zero,4042574 <__muldf3+0x654>
 4042558:	910003cc 	andi	r4,r18,15
 404255c:	01400104 	movi	r5,4
 4042560:	21400426 	beq	r4,r5,4042574 <__muldf3+0x654>
 4042564:	9149883a 	add	r4,r18,r5
 4042568:	24a5803a 	cmpltu	r18,r4,r18
 404256c:	8ca3883a 	add	r17,r17,r18
 4042570:	2025883a 	mov	r18,r4
 4042574:	8900402c 	andhi	r4,r17,256
 4042578:	20000426 	beq	r4,zero,404258c <__muldf3+0x66c>
 404257c:	18810004 	addi	r2,r3,1024
 4042580:	00ffc034 	movhi	r3,65280
 4042584:	18ffffc4 	addi	r3,r3,-1
 4042588:	88e2703a 	and	r17,r17,r3
 404258c:	00c1ff84 	movi	r3,2046
 4042590:	18bf1316 	blt	r3,r2,40421e0 <__flash_rwdata_start+0xffff1478>
 4042594:	882c977a 	slli	r22,r17,29
 4042598:	9024d0fa 	srli	r18,r18,3
 404259c:	8822927a 	slli	r17,r17,9
 40425a0:	1081ffcc 	andi	r2,r2,2047
 40425a4:	b4acb03a 	or	r22,r22,r18
 40425a8:	8820d33a 	srli	r16,r17,12
 40425ac:	3027883a 	mov	r19,r6
 40425b0:	003eba06 	br	404209c <__flash_rwdata_start+0xffff1334>
 40425b4:	8080022c 	andhi	r2,r16,8
 40425b8:	10000926 	beq	r2,zero,40425e0 <__muldf3+0x6c0>
 40425bc:	8880022c 	andhi	r2,r17,8
 40425c0:	1000071e 	bne	r2,zero,40425e0 <__muldf3+0x6c0>
 40425c4:	00800434 	movhi	r2,16
 40425c8:	8c000234 	orhi	r16,r17,8
 40425cc:	10bfffc4 	addi	r2,r2,-1
 40425d0:	e027883a 	mov	r19,fp
 40425d4:	80a0703a 	and	r16,r16,r2
 40425d8:	902d883a 	mov	r22,r18
 40425dc:	003f1706 	br	404223c <__flash_rwdata_start+0xffff14d4>
 40425e0:	00800434 	movhi	r2,16
 40425e4:	84000234 	orhi	r16,r16,8
 40425e8:	10bfffc4 	addi	r2,r2,-1
 40425ec:	80a0703a 	and	r16,r16,r2
 40425f0:	003f1206 	br	404223c <__flash_rwdata_start+0xffff14d4>
 40425f4:	147ff604 	addi	r17,r2,-40
 40425f8:	3462983a 	sll	r17,r6,r17
 40425fc:	0025883a 	mov	r18,zero
 4042600:	003ef306 	br	40421d0 <__flash_rwdata_start+0xffff1468>
 4042604:	3009883a 	mov	r4,r6
 4042608:	d9400215 	stw	r5,8(sp)
 404260c:	d9800715 	stw	r6,28(sp)
 4042610:	da400415 	stw	r9,16(sp)
 4042614:	da800315 	stw	r10,12(sp)
 4042618:	404328c0 	call	404328c <__clzsi2>
 404261c:	10800804 	addi	r2,r2,32
 4042620:	da800317 	ldw	r10,12(sp)
 4042624:	da400417 	ldw	r9,16(sp)
 4042628:	d9800717 	ldw	r6,28(sp)
 404262c:	d9400217 	ldw	r5,8(sp)
 4042630:	003edd06 	br	40421a8 <__flash_rwdata_start+0xffff1440>
 4042634:	143ff604 	addi	r16,r2,-40
 4042638:	ac20983a 	sll	r16,r21,r16
 404263c:	002d883a 	mov	r22,zero
 4042640:	003ec106 	br	4042148 <__flash_rwdata_start+0xffff13e0>
 4042644:	d9800715 	stw	r6,28(sp)
 4042648:	d9c00215 	stw	r7,8(sp)
 404264c:	da400415 	stw	r9,16(sp)
 4042650:	404328c0 	call	404328c <__clzsi2>
 4042654:	10800804 	addi	r2,r2,32
 4042658:	da400417 	ldw	r9,16(sp)
 404265c:	d9c00217 	ldw	r7,8(sp)
 4042660:	d9800717 	ldw	r6,28(sp)
 4042664:	003eae06 	br	4042120 <__flash_rwdata_start+0xffff13b8>
 4042668:	00c00044 	movi	r3,1
 404266c:	1887c83a 	sub	r3,r3,r2
 4042670:	01000e04 	movi	r4,56
 4042674:	20fe8516 	blt	r4,r3,404208c <__flash_rwdata_start+0xffff1324>
 4042678:	010007c4 	movi	r4,31
 404267c:	20c01b16 	blt	r4,r3,40426ec <__muldf3+0x7cc>
 4042680:	00800804 	movi	r2,32
 4042684:	10c5c83a 	sub	r2,r2,r3
 4042688:	888a983a 	sll	r5,r17,r2
 404268c:	90c8d83a 	srl	r4,r18,r3
 4042690:	9084983a 	sll	r2,r18,r2
 4042694:	88e2d83a 	srl	r17,r17,r3
 4042698:	2906b03a 	or	r3,r5,r4
 404269c:	1004c03a 	cmpne	r2,r2,zero
 40426a0:	1886b03a 	or	r3,r3,r2
 40426a4:	188001cc 	andi	r2,r3,7
 40426a8:	10000726 	beq	r2,zero,40426c8 <__muldf3+0x7a8>
 40426ac:	188003cc 	andi	r2,r3,15
 40426b0:	01000104 	movi	r4,4
 40426b4:	11000426 	beq	r2,r4,40426c8 <__muldf3+0x7a8>
 40426b8:	1805883a 	mov	r2,r3
 40426bc:	10c00104 	addi	r3,r2,4
 40426c0:	1885803a 	cmpltu	r2,r3,r2
 40426c4:	88a3883a 	add	r17,r17,r2
 40426c8:	8880202c 	andhi	r2,r17,128
 40426cc:	10001c26 	beq	r2,zero,4042740 <__muldf3+0x820>
 40426d0:	3027883a 	mov	r19,r6
 40426d4:	00800044 	movi	r2,1
 40426d8:	0021883a 	mov	r16,zero
 40426dc:	002d883a 	mov	r22,zero
 40426e0:	003e6e06 	br	404209c <__flash_rwdata_start+0xffff1334>
 40426e4:	4007883a 	mov	r3,r8
 40426e8:	003f9706 	br	4042548 <__flash_rwdata_start+0xffff17e0>
 40426ec:	017ff844 	movi	r5,-31
 40426f0:	2885c83a 	sub	r2,r5,r2
 40426f4:	888ad83a 	srl	r5,r17,r2
 40426f8:	00800804 	movi	r2,32
 40426fc:	18801a26 	beq	r3,r2,4042768 <__muldf3+0x848>
 4042700:	01001004 	movi	r4,64
 4042704:	20c7c83a 	sub	r3,r4,r3
 4042708:	88e2983a 	sll	r17,r17,r3
 404270c:	8ca4b03a 	or	r18,r17,r18
 4042710:	9004c03a 	cmpne	r2,r18,zero
 4042714:	2884b03a 	or	r2,r5,r2
 4042718:	144001cc 	andi	r17,r2,7
 404271c:	88000d1e 	bne	r17,zero,4042754 <__muldf3+0x834>
 4042720:	0021883a 	mov	r16,zero
 4042724:	102cd0fa 	srli	r22,r2,3
 4042728:	3027883a 	mov	r19,r6
 404272c:	0005883a 	mov	r2,zero
 4042730:	b46cb03a 	or	r22,r22,r17
 4042734:	003e5906 	br	404209c <__flash_rwdata_start+0xffff1334>
 4042738:	1007883a 	mov	r3,r2
 404273c:	0023883a 	mov	r17,zero
 4042740:	8820927a 	slli	r16,r17,9
 4042744:	1805883a 	mov	r2,r3
 4042748:	8822977a 	slli	r17,r17,29
 404274c:	8020d33a 	srli	r16,r16,12
 4042750:	003ff406 	br	4042724 <__flash_rwdata_start+0xffff19bc>
 4042754:	10c003cc 	andi	r3,r2,15
 4042758:	01000104 	movi	r4,4
 404275c:	193ff626 	beq	r3,r4,4042738 <__flash_rwdata_start+0xffff19d0>
 4042760:	0023883a 	mov	r17,zero
 4042764:	003fd506 	br	40426bc <__flash_rwdata_start+0xffff1954>
 4042768:	0023883a 	mov	r17,zero
 404276c:	003fe706 	br	404270c <__flash_rwdata_start+0xffff19a4>
 4042770:	00800434 	movhi	r2,16
 4042774:	8c000234 	orhi	r16,r17,8
 4042778:	10bfffc4 	addi	r2,r2,-1
 404277c:	3027883a 	mov	r19,r6
 4042780:	80a0703a 	and	r16,r16,r2
 4042784:	902d883a 	mov	r22,r18
 4042788:	003eac06 	br	404223c <__flash_rwdata_start+0xffff14d4>

0404278c <__subdf3>:
 404278c:	02000434 	movhi	r8,16
 4042790:	423fffc4 	addi	r8,r8,-1
 4042794:	defffb04 	addi	sp,sp,-20
 4042798:	2a14703a 	and	r10,r5,r8
 404279c:	3812d53a 	srli	r9,r7,20
 40427a0:	3a10703a 	and	r8,r7,r8
 40427a4:	2006d77a 	srli	r3,r4,29
 40427a8:	3004d77a 	srli	r2,r6,29
 40427ac:	dc000015 	stw	r16,0(sp)
 40427b0:	501490fa 	slli	r10,r10,3
 40427b4:	2820d53a 	srli	r16,r5,20
 40427b8:	401090fa 	slli	r8,r8,3
 40427bc:	dc800215 	stw	r18,8(sp)
 40427c0:	dc400115 	stw	r17,4(sp)
 40427c4:	dfc00415 	stw	ra,16(sp)
 40427c8:	202290fa 	slli	r17,r4,3
 40427cc:	dcc00315 	stw	r19,12(sp)
 40427d0:	4a41ffcc 	andi	r9,r9,2047
 40427d4:	0101ffc4 	movi	r4,2047
 40427d8:	2824d7fa 	srli	r18,r5,31
 40427dc:	8401ffcc 	andi	r16,r16,2047
 40427e0:	50c6b03a 	or	r3,r10,r3
 40427e4:	380ed7fa 	srli	r7,r7,31
 40427e8:	408ab03a 	or	r5,r8,r2
 40427ec:	300c90fa 	slli	r6,r6,3
 40427f0:	49009626 	beq	r9,r4,4042a4c <__subdf3+0x2c0>
 40427f4:	39c0005c 	xori	r7,r7,1
 40427f8:	8245c83a 	sub	r2,r16,r9
 40427fc:	3c807426 	beq	r7,r18,40429d0 <__subdf3+0x244>
 4042800:	0080af0e 	bge	zero,r2,4042ac0 <__subdf3+0x334>
 4042804:	48002a1e 	bne	r9,zero,40428b0 <__subdf3+0x124>
 4042808:	2988b03a 	or	r4,r5,r6
 404280c:	20009a1e 	bne	r4,zero,4042a78 <__subdf3+0x2ec>
 4042810:	888001cc 	andi	r2,r17,7
 4042814:	10000726 	beq	r2,zero,4042834 <__subdf3+0xa8>
 4042818:	888003cc 	andi	r2,r17,15
 404281c:	01000104 	movi	r4,4
 4042820:	11000426 	beq	r2,r4,4042834 <__subdf3+0xa8>
 4042824:	890b883a 	add	r5,r17,r4
 4042828:	2c63803a 	cmpltu	r17,r5,r17
 404282c:	1c47883a 	add	r3,r3,r17
 4042830:	2823883a 	mov	r17,r5
 4042834:	1880202c 	andhi	r2,r3,128
 4042838:	10005926 	beq	r2,zero,40429a0 <__subdf3+0x214>
 404283c:	84000044 	addi	r16,r16,1
 4042840:	0081ffc4 	movi	r2,2047
 4042844:	8080be26 	beq	r16,r2,4042b40 <__subdf3+0x3b4>
 4042848:	017fe034 	movhi	r5,65408
 404284c:	297fffc4 	addi	r5,r5,-1
 4042850:	1946703a 	and	r3,r3,r5
 4042854:	1804977a 	slli	r2,r3,29
 4042858:	1806927a 	slli	r3,r3,9
 404285c:	8822d0fa 	srli	r17,r17,3
 4042860:	8401ffcc 	andi	r16,r16,2047
 4042864:	180ad33a 	srli	r5,r3,12
 4042868:	9100004c 	andi	r4,r18,1
 404286c:	1444b03a 	or	r2,r2,r17
 4042870:	80c1ffcc 	andi	r3,r16,2047
 4042874:	1820953a 	slli	r16,r3,20
 4042878:	20c03fcc 	andi	r3,r4,255
 404287c:	180897fa 	slli	r4,r3,31
 4042880:	00c00434 	movhi	r3,16
 4042884:	18ffffc4 	addi	r3,r3,-1
 4042888:	28c6703a 	and	r3,r5,r3
 404288c:	1c06b03a 	or	r3,r3,r16
 4042890:	1906b03a 	or	r3,r3,r4
 4042894:	dfc00417 	ldw	ra,16(sp)
 4042898:	dcc00317 	ldw	r19,12(sp)
 404289c:	dc800217 	ldw	r18,8(sp)
 40428a0:	dc400117 	ldw	r17,4(sp)
 40428a4:	dc000017 	ldw	r16,0(sp)
 40428a8:	dec00504 	addi	sp,sp,20
 40428ac:	f800283a 	ret
 40428b0:	0101ffc4 	movi	r4,2047
 40428b4:	813fd626 	beq	r16,r4,4042810 <__flash_rwdata_start+0xffff1aa8>
 40428b8:	29402034 	orhi	r5,r5,128
 40428bc:	01000e04 	movi	r4,56
 40428c0:	2080a316 	blt	r4,r2,4042b50 <__subdf3+0x3c4>
 40428c4:	010007c4 	movi	r4,31
 40428c8:	2080c616 	blt	r4,r2,4042be4 <__subdf3+0x458>
 40428cc:	01000804 	movi	r4,32
 40428d0:	2089c83a 	sub	r4,r4,r2
 40428d4:	2910983a 	sll	r8,r5,r4
 40428d8:	308ed83a 	srl	r7,r6,r2
 40428dc:	3108983a 	sll	r4,r6,r4
 40428e0:	2884d83a 	srl	r2,r5,r2
 40428e4:	41ccb03a 	or	r6,r8,r7
 40428e8:	2008c03a 	cmpne	r4,r4,zero
 40428ec:	310cb03a 	or	r6,r6,r4
 40428f0:	898dc83a 	sub	r6,r17,r6
 40428f4:	89a3803a 	cmpltu	r17,r17,r6
 40428f8:	1887c83a 	sub	r3,r3,r2
 40428fc:	1c47c83a 	sub	r3,r3,r17
 4042900:	3023883a 	mov	r17,r6
 4042904:	1880202c 	andhi	r2,r3,128
 4042908:	10002326 	beq	r2,zero,4042998 <__subdf3+0x20c>
 404290c:	04c02034 	movhi	r19,128
 4042910:	9cffffc4 	addi	r19,r19,-1
 4042914:	1ce6703a 	and	r19,r3,r19
 4042918:	98007a26 	beq	r19,zero,4042b04 <__subdf3+0x378>
 404291c:	9809883a 	mov	r4,r19
 4042920:	404328c0 	call	404328c <__clzsi2>
 4042924:	113ffe04 	addi	r4,r2,-8
 4042928:	00c007c4 	movi	r3,31
 404292c:	19007b16 	blt	r3,r4,4042b1c <__subdf3+0x390>
 4042930:	00800804 	movi	r2,32
 4042934:	1105c83a 	sub	r2,r2,r4
 4042938:	8884d83a 	srl	r2,r17,r2
 404293c:	9906983a 	sll	r3,r19,r4
 4042940:	8922983a 	sll	r17,r17,r4
 4042944:	10c4b03a 	or	r2,r2,r3
 4042948:	24007816 	blt	r4,r16,4042b2c <__subdf3+0x3a0>
 404294c:	2421c83a 	sub	r16,r4,r16
 4042950:	80c00044 	addi	r3,r16,1
 4042954:	010007c4 	movi	r4,31
 4042958:	20c09516 	blt	r4,r3,4042bb0 <__subdf3+0x424>
 404295c:	01400804 	movi	r5,32
 4042960:	28cbc83a 	sub	r5,r5,r3
 4042964:	88c8d83a 	srl	r4,r17,r3
 4042968:	8962983a 	sll	r17,r17,r5
 404296c:	114a983a 	sll	r5,r2,r5
 4042970:	10c6d83a 	srl	r3,r2,r3
 4042974:	8804c03a 	cmpne	r2,r17,zero
 4042978:	290ab03a 	or	r5,r5,r4
 404297c:	28a2b03a 	or	r17,r5,r2
 4042980:	0021883a 	mov	r16,zero
 4042984:	003fa206 	br	4042810 <__flash_rwdata_start+0xffff1aa8>
 4042988:	2090b03a 	or	r8,r4,r2
 404298c:	40018e26 	beq	r8,zero,4042fc8 <__subdf3+0x83c>
 4042990:	1007883a 	mov	r3,r2
 4042994:	2023883a 	mov	r17,r4
 4042998:	888001cc 	andi	r2,r17,7
 404299c:	103f9e1e 	bne	r2,zero,4042818 <__flash_rwdata_start+0xffff1ab0>
 40429a0:	1804977a 	slli	r2,r3,29
 40429a4:	8822d0fa 	srli	r17,r17,3
 40429a8:	1810d0fa 	srli	r8,r3,3
 40429ac:	9100004c 	andi	r4,r18,1
 40429b0:	1444b03a 	or	r2,r2,r17
 40429b4:	00c1ffc4 	movi	r3,2047
 40429b8:	80c02826 	beq	r16,r3,4042a5c <__subdf3+0x2d0>
 40429bc:	01400434 	movhi	r5,16
 40429c0:	297fffc4 	addi	r5,r5,-1
 40429c4:	80e0703a 	and	r16,r16,r3
 40429c8:	414a703a 	and	r5,r8,r5
 40429cc:	003fa806 	br	4042870 <__flash_rwdata_start+0xffff1b08>
 40429d0:	0080630e 	bge	zero,r2,4042b60 <__subdf3+0x3d4>
 40429d4:	48003026 	beq	r9,zero,4042a98 <__subdf3+0x30c>
 40429d8:	0101ffc4 	movi	r4,2047
 40429dc:	813f8c26 	beq	r16,r4,4042810 <__flash_rwdata_start+0xffff1aa8>
 40429e0:	29402034 	orhi	r5,r5,128
 40429e4:	01000e04 	movi	r4,56
 40429e8:	2080a90e 	bge	r4,r2,4042c90 <__subdf3+0x504>
 40429ec:	298cb03a 	or	r6,r5,r6
 40429f0:	3012c03a 	cmpne	r9,r6,zero
 40429f4:	0005883a 	mov	r2,zero
 40429f8:	4c53883a 	add	r9,r9,r17
 40429fc:	4c63803a 	cmpltu	r17,r9,r17
 4042a00:	10c7883a 	add	r3,r2,r3
 4042a04:	88c7883a 	add	r3,r17,r3
 4042a08:	4823883a 	mov	r17,r9
 4042a0c:	1880202c 	andhi	r2,r3,128
 4042a10:	1000d026 	beq	r2,zero,4042d54 <__subdf3+0x5c8>
 4042a14:	84000044 	addi	r16,r16,1
 4042a18:	0081ffc4 	movi	r2,2047
 4042a1c:	8080fe26 	beq	r16,r2,4042e18 <__subdf3+0x68c>
 4042a20:	00bfe034 	movhi	r2,65408
 4042a24:	10bfffc4 	addi	r2,r2,-1
 4042a28:	1886703a 	and	r3,r3,r2
 4042a2c:	880ad07a 	srli	r5,r17,1
 4042a30:	180497fa 	slli	r2,r3,31
 4042a34:	8900004c 	andi	r4,r17,1
 4042a38:	2922b03a 	or	r17,r5,r4
 4042a3c:	1806d07a 	srli	r3,r3,1
 4042a40:	1462b03a 	or	r17,r2,r17
 4042a44:	3825883a 	mov	r18,r7
 4042a48:	003f7106 	br	4042810 <__flash_rwdata_start+0xffff1aa8>
 4042a4c:	2984b03a 	or	r2,r5,r6
 4042a50:	103f6826 	beq	r2,zero,40427f4 <__flash_rwdata_start+0xffff1a8c>
 4042a54:	39c03fcc 	andi	r7,r7,255
 4042a58:	003f6706 	br	40427f8 <__flash_rwdata_start+0xffff1a90>
 4042a5c:	4086b03a 	or	r3,r8,r2
 4042a60:	18015226 	beq	r3,zero,4042fac <__subdf3+0x820>
 4042a64:	00c00434 	movhi	r3,16
 4042a68:	41400234 	orhi	r5,r8,8
 4042a6c:	18ffffc4 	addi	r3,r3,-1
 4042a70:	28ca703a 	and	r5,r5,r3
 4042a74:	003f7e06 	br	4042870 <__flash_rwdata_start+0xffff1b08>
 4042a78:	10bfffc4 	addi	r2,r2,-1
 4042a7c:	1000491e 	bne	r2,zero,4042ba4 <__subdf3+0x418>
 4042a80:	898fc83a 	sub	r7,r17,r6
 4042a84:	89e3803a 	cmpltu	r17,r17,r7
 4042a88:	1947c83a 	sub	r3,r3,r5
 4042a8c:	1c47c83a 	sub	r3,r3,r17
 4042a90:	3823883a 	mov	r17,r7
 4042a94:	003f9b06 	br	4042904 <__flash_rwdata_start+0xffff1b9c>
 4042a98:	2988b03a 	or	r4,r5,r6
 4042a9c:	203f5c26 	beq	r4,zero,4042810 <__flash_rwdata_start+0xffff1aa8>
 4042aa0:	10bfffc4 	addi	r2,r2,-1
 4042aa4:	1000931e 	bne	r2,zero,4042cf4 <__subdf3+0x568>
 4042aa8:	898d883a 	add	r6,r17,r6
 4042aac:	3463803a 	cmpltu	r17,r6,r17
 4042ab0:	1947883a 	add	r3,r3,r5
 4042ab4:	88c7883a 	add	r3,r17,r3
 4042ab8:	3023883a 	mov	r17,r6
 4042abc:	003fd306 	br	4042a0c <__flash_rwdata_start+0xffff1ca4>
 4042ac0:	1000541e 	bne	r2,zero,4042c14 <__subdf3+0x488>
 4042ac4:	80800044 	addi	r2,r16,1
 4042ac8:	1081ffcc 	andi	r2,r2,2047
 4042acc:	01000044 	movi	r4,1
 4042ad0:	2080a20e 	bge	r4,r2,4042d5c <__subdf3+0x5d0>
 4042ad4:	8989c83a 	sub	r4,r17,r6
 4042ad8:	8905803a 	cmpltu	r2,r17,r4
 4042adc:	1967c83a 	sub	r19,r3,r5
 4042ae0:	98a7c83a 	sub	r19,r19,r2
 4042ae4:	9880202c 	andhi	r2,r19,128
 4042ae8:	10006326 	beq	r2,zero,4042c78 <__subdf3+0x4ec>
 4042aec:	3463c83a 	sub	r17,r6,r17
 4042af0:	28c7c83a 	sub	r3,r5,r3
 4042af4:	344d803a 	cmpltu	r6,r6,r17
 4042af8:	19a7c83a 	sub	r19,r3,r6
 4042afc:	3825883a 	mov	r18,r7
 4042b00:	983f861e 	bne	r19,zero,404291c <__flash_rwdata_start+0xffff1bb4>
 4042b04:	8809883a 	mov	r4,r17
 4042b08:	404328c0 	call	404328c <__clzsi2>
 4042b0c:	10800804 	addi	r2,r2,32
 4042b10:	113ffe04 	addi	r4,r2,-8
 4042b14:	00c007c4 	movi	r3,31
 4042b18:	193f850e 	bge	r3,r4,4042930 <__flash_rwdata_start+0xffff1bc8>
 4042b1c:	10bff604 	addi	r2,r2,-40
 4042b20:	8884983a 	sll	r2,r17,r2
 4042b24:	0023883a 	mov	r17,zero
 4042b28:	243f880e 	bge	r4,r16,404294c <__flash_rwdata_start+0xffff1be4>
 4042b2c:	00ffe034 	movhi	r3,65408
 4042b30:	18ffffc4 	addi	r3,r3,-1
 4042b34:	8121c83a 	sub	r16,r16,r4
 4042b38:	10c6703a 	and	r3,r2,r3
 4042b3c:	003f3406 	br	4042810 <__flash_rwdata_start+0xffff1aa8>
 4042b40:	9100004c 	andi	r4,r18,1
 4042b44:	000b883a 	mov	r5,zero
 4042b48:	0005883a 	mov	r2,zero
 4042b4c:	003f4806 	br	4042870 <__flash_rwdata_start+0xffff1b08>
 4042b50:	298cb03a 	or	r6,r5,r6
 4042b54:	300cc03a 	cmpne	r6,r6,zero
 4042b58:	0005883a 	mov	r2,zero
 4042b5c:	003f6406 	br	40428f0 <__flash_rwdata_start+0xffff1b88>
 4042b60:	10009a1e 	bne	r2,zero,4042dcc <__subdf3+0x640>
 4042b64:	82400044 	addi	r9,r16,1
 4042b68:	4881ffcc 	andi	r2,r9,2047
 4042b6c:	02800044 	movi	r10,1
 4042b70:	5080670e 	bge	r10,r2,4042d10 <__subdf3+0x584>
 4042b74:	0081ffc4 	movi	r2,2047
 4042b78:	4880af26 	beq	r9,r2,4042e38 <__subdf3+0x6ac>
 4042b7c:	898d883a 	add	r6,r17,r6
 4042b80:	1945883a 	add	r2,r3,r5
 4042b84:	3447803a 	cmpltu	r3,r6,r17
 4042b88:	1887883a 	add	r3,r3,r2
 4042b8c:	182297fa 	slli	r17,r3,31
 4042b90:	300cd07a 	srli	r6,r6,1
 4042b94:	1806d07a 	srli	r3,r3,1
 4042b98:	4821883a 	mov	r16,r9
 4042b9c:	89a2b03a 	or	r17,r17,r6
 4042ba0:	003f1b06 	br	4042810 <__flash_rwdata_start+0xffff1aa8>
 4042ba4:	0101ffc4 	movi	r4,2047
 4042ba8:	813f441e 	bne	r16,r4,40428bc <__flash_rwdata_start+0xffff1b54>
 4042bac:	003f1806 	br	4042810 <__flash_rwdata_start+0xffff1aa8>
 4042bb0:	843ff844 	addi	r16,r16,-31
 4042bb4:	01400804 	movi	r5,32
 4042bb8:	1408d83a 	srl	r4,r2,r16
 4042bbc:	19405026 	beq	r3,r5,4042d00 <__subdf3+0x574>
 4042bc0:	01401004 	movi	r5,64
 4042bc4:	28c7c83a 	sub	r3,r5,r3
 4042bc8:	10c4983a 	sll	r2,r2,r3
 4042bcc:	88a2b03a 	or	r17,r17,r2
 4042bd0:	8822c03a 	cmpne	r17,r17,zero
 4042bd4:	2462b03a 	or	r17,r4,r17
 4042bd8:	0007883a 	mov	r3,zero
 4042bdc:	0021883a 	mov	r16,zero
 4042be0:	003f6d06 	br	4042998 <__flash_rwdata_start+0xffff1c30>
 4042be4:	11fff804 	addi	r7,r2,-32
 4042be8:	01000804 	movi	r4,32
 4042bec:	29ced83a 	srl	r7,r5,r7
 4042bf0:	11004526 	beq	r2,r4,4042d08 <__subdf3+0x57c>
 4042bf4:	01001004 	movi	r4,64
 4042bf8:	2089c83a 	sub	r4,r4,r2
 4042bfc:	2904983a 	sll	r2,r5,r4
 4042c00:	118cb03a 	or	r6,r2,r6
 4042c04:	300cc03a 	cmpne	r6,r6,zero
 4042c08:	398cb03a 	or	r6,r7,r6
 4042c0c:	0005883a 	mov	r2,zero
 4042c10:	003f3706 	br	40428f0 <__flash_rwdata_start+0xffff1b88>
 4042c14:	80002a26 	beq	r16,zero,4042cc0 <__subdf3+0x534>
 4042c18:	0101ffc4 	movi	r4,2047
 4042c1c:	49006626 	beq	r9,r4,4042db8 <__subdf3+0x62c>
 4042c20:	0085c83a 	sub	r2,zero,r2
 4042c24:	18c02034 	orhi	r3,r3,128
 4042c28:	01000e04 	movi	r4,56
 4042c2c:	20807e16 	blt	r4,r2,4042e28 <__subdf3+0x69c>
 4042c30:	010007c4 	movi	r4,31
 4042c34:	2080e716 	blt	r4,r2,4042fd4 <__subdf3+0x848>
 4042c38:	01000804 	movi	r4,32
 4042c3c:	2089c83a 	sub	r4,r4,r2
 4042c40:	1914983a 	sll	r10,r3,r4
 4042c44:	8890d83a 	srl	r8,r17,r2
 4042c48:	8908983a 	sll	r4,r17,r4
 4042c4c:	1884d83a 	srl	r2,r3,r2
 4042c50:	5222b03a 	or	r17,r10,r8
 4042c54:	2006c03a 	cmpne	r3,r4,zero
 4042c58:	88e2b03a 	or	r17,r17,r3
 4042c5c:	3463c83a 	sub	r17,r6,r17
 4042c60:	2885c83a 	sub	r2,r5,r2
 4042c64:	344d803a 	cmpltu	r6,r6,r17
 4042c68:	1187c83a 	sub	r3,r2,r6
 4042c6c:	4821883a 	mov	r16,r9
 4042c70:	3825883a 	mov	r18,r7
 4042c74:	003f2306 	br	4042904 <__flash_rwdata_start+0xffff1b9c>
 4042c78:	24d0b03a 	or	r8,r4,r19
 4042c7c:	40001b1e 	bne	r8,zero,4042cec <__subdf3+0x560>
 4042c80:	0005883a 	mov	r2,zero
 4042c84:	0009883a 	mov	r4,zero
 4042c88:	0021883a 	mov	r16,zero
 4042c8c:	003f4906 	br	40429b4 <__flash_rwdata_start+0xffff1c4c>
 4042c90:	010007c4 	movi	r4,31
 4042c94:	20803a16 	blt	r4,r2,4042d80 <__subdf3+0x5f4>
 4042c98:	01000804 	movi	r4,32
 4042c9c:	2089c83a 	sub	r4,r4,r2
 4042ca0:	2912983a 	sll	r9,r5,r4
 4042ca4:	3090d83a 	srl	r8,r6,r2
 4042ca8:	3108983a 	sll	r4,r6,r4
 4042cac:	2884d83a 	srl	r2,r5,r2
 4042cb0:	4a12b03a 	or	r9,r9,r8
 4042cb4:	2008c03a 	cmpne	r4,r4,zero
 4042cb8:	4912b03a 	or	r9,r9,r4
 4042cbc:	003f4e06 	br	40429f8 <__flash_rwdata_start+0xffff1c90>
 4042cc0:	1c48b03a 	or	r4,r3,r17
 4042cc4:	20003c26 	beq	r4,zero,4042db8 <__subdf3+0x62c>
 4042cc8:	0084303a 	nor	r2,zero,r2
 4042ccc:	1000381e 	bne	r2,zero,4042db0 <__subdf3+0x624>
 4042cd0:	3463c83a 	sub	r17,r6,r17
 4042cd4:	28c5c83a 	sub	r2,r5,r3
 4042cd8:	344d803a 	cmpltu	r6,r6,r17
 4042cdc:	1187c83a 	sub	r3,r2,r6
 4042ce0:	4821883a 	mov	r16,r9
 4042ce4:	3825883a 	mov	r18,r7
 4042ce8:	003f0606 	br	4042904 <__flash_rwdata_start+0xffff1b9c>
 4042cec:	2023883a 	mov	r17,r4
 4042cf0:	003f0906 	br	4042918 <__flash_rwdata_start+0xffff1bb0>
 4042cf4:	0101ffc4 	movi	r4,2047
 4042cf8:	813f3a1e 	bne	r16,r4,40429e4 <__flash_rwdata_start+0xffff1c7c>
 4042cfc:	003ec406 	br	4042810 <__flash_rwdata_start+0xffff1aa8>
 4042d00:	0005883a 	mov	r2,zero
 4042d04:	003fb106 	br	4042bcc <__flash_rwdata_start+0xffff1e64>
 4042d08:	0005883a 	mov	r2,zero
 4042d0c:	003fbc06 	br	4042c00 <__flash_rwdata_start+0xffff1e98>
 4042d10:	1c44b03a 	or	r2,r3,r17
 4042d14:	80008e1e 	bne	r16,zero,4042f50 <__subdf3+0x7c4>
 4042d18:	1000c826 	beq	r2,zero,404303c <__subdf3+0x8b0>
 4042d1c:	2984b03a 	or	r2,r5,r6
 4042d20:	103ebb26 	beq	r2,zero,4042810 <__flash_rwdata_start+0xffff1aa8>
 4042d24:	8989883a 	add	r4,r17,r6
 4042d28:	1945883a 	add	r2,r3,r5
 4042d2c:	2447803a 	cmpltu	r3,r4,r17
 4042d30:	1887883a 	add	r3,r3,r2
 4042d34:	1880202c 	andhi	r2,r3,128
 4042d38:	2023883a 	mov	r17,r4
 4042d3c:	103f1626 	beq	r2,zero,4042998 <__flash_rwdata_start+0xffff1c30>
 4042d40:	00bfe034 	movhi	r2,65408
 4042d44:	10bfffc4 	addi	r2,r2,-1
 4042d48:	5021883a 	mov	r16,r10
 4042d4c:	1886703a 	and	r3,r3,r2
 4042d50:	003eaf06 	br	4042810 <__flash_rwdata_start+0xffff1aa8>
 4042d54:	3825883a 	mov	r18,r7
 4042d58:	003f0f06 	br	4042998 <__flash_rwdata_start+0xffff1c30>
 4042d5c:	1c44b03a 	or	r2,r3,r17
 4042d60:	8000251e 	bne	r16,zero,4042df8 <__subdf3+0x66c>
 4042d64:	1000661e 	bne	r2,zero,4042f00 <__subdf3+0x774>
 4042d68:	2990b03a 	or	r8,r5,r6
 4042d6c:	40009626 	beq	r8,zero,4042fc8 <__subdf3+0x83c>
 4042d70:	2807883a 	mov	r3,r5
 4042d74:	3023883a 	mov	r17,r6
 4042d78:	3825883a 	mov	r18,r7
 4042d7c:	003ea406 	br	4042810 <__flash_rwdata_start+0xffff1aa8>
 4042d80:	127ff804 	addi	r9,r2,-32
 4042d84:	01000804 	movi	r4,32
 4042d88:	2a52d83a 	srl	r9,r5,r9
 4042d8c:	11008c26 	beq	r2,r4,4042fc0 <__subdf3+0x834>
 4042d90:	01001004 	movi	r4,64
 4042d94:	2085c83a 	sub	r2,r4,r2
 4042d98:	2884983a 	sll	r2,r5,r2
 4042d9c:	118cb03a 	or	r6,r2,r6
 4042da0:	300cc03a 	cmpne	r6,r6,zero
 4042da4:	4992b03a 	or	r9,r9,r6
 4042da8:	0005883a 	mov	r2,zero
 4042dac:	003f1206 	br	40429f8 <__flash_rwdata_start+0xffff1c90>
 4042db0:	0101ffc4 	movi	r4,2047
 4042db4:	493f9c1e 	bne	r9,r4,4042c28 <__flash_rwdata_start+0xffff1ec0>
 4042db8:	2807883a 	mov	r3,r5
 4042dbc:	3023883a 	mov	r17,r6
 4042dc0:	4821883a 	mov	r16,r9
 4042dc4:	3825883a 	mov	r18,r7
 4042dc8:	003e9106 	br	4042810 <__flash_rwdata_start+0xffff1aa8>
 4042dcc:	80001f1e 	bne	r16,zero,4042e4c <__subdf3+0x6c0>
 4042dd0:	1c48b03a 	or	r4,r3,r17
 4042dd4:	20005a26 	beq	r4,zero,4042f40 <__subdf3+0x7b4>
 4042dd8:	0084303a 	nor	r2,zero,r2
 4042ddc:	1000561e 	bne	r2,zero,4042f38 <__subdf3+0x7ac>
 4042de0:	89a3883a 	add	r17,r17,r6
 4042de4:	1945883a 	add	r2,r3,r5
 4042de8:	898d803a 	cmpltu	r6,r17,r6
 4042dec:	3087883a 	add	r3,r6,r2
 4042df0:	4821883a 	mov	r16,r9
 4042df4:	003f0506 	br	4042a0c <__flash_rwdata_start+0xffff1ca4>
 4042df8:	10002b1e 	bne	r2,zero,4042ea8 <__subdf3+0x71c>
 4042dfc:	2984b03a 	or	r2,r5,r6
 4042e00:	10008026 	beq	r2,zero,4043004 <__subdf3+0x878>
 4042e04:	2807883a 	mov	r3,r5
 4042e08:	3023883a 	mov	r17,r6
 4042e0c:	3825883a 	mov	r18,r7
 4042e10:	0401ffc4 	movi	r16,2047
 4042e14:	003e7e06 	br	4042810 <__flash_rwdata_start+0xffff1aa8>
 4042e18:	3809883a 	mov	r4,r7
 4042e1c:	0011883a 	mov	r8,zero
 4042e20:	0005883a 	mov	r2,zero
 4042e24:	003ee306 	br	40429b4 <__flash_rwdata_start+0xffff1c4c>
 4042e28:	1c62b03a 	or	r17,r3,r17
 4042e2c:	8822c03a 	cmpne	r17,r17,zero
 4042e30:	0005883a 	mov	r2,zero
 4042e34:	003f8906 	br	4042c5c <__flash_rwdata_start+0xffff1ef4>
 4042e38:	3809883a 	mov	r4,r7
 4042e3c:	4821883a 	mov	r16,r9
 4042e40:	0011883a 	mov	r8,zero
 4042e44:	0005883a 	mov	r2,zero
 4042e48:	003eda06 	br	40429b4 <__flash_rwdata_start+0xffff1c4c>
 4042e4c:	0101ffc4 	movi	r4,2047
 4042e50:	49003b26 	beq	r9,r4,4042f40 <__subdf3+0x7b4>
 4042e54:	0085c83a 	sub	r2,zero,r2
 4042e58:	18c02034 	orhi	r3,r3,128
 4042e5c:	01000e04 	movi	r4,56
 4042e60:	20806e16 	blt	r4,r2,404301c <__subdf3+0x890>
 4042e64:	010007c4 	movi	r4,31
 4042e68:	20807716 	blt	r4,r2,4043048 <__subdf3+0x8bc>
 4042e6c:	01000804 	movi	r4,32
 4042e70:	2089c83a 	sub	r4,r4,r2
 4042e74:	1914983a 	sll	r10,r3,r4
 4042e78:	8890d83a 	srl	r8,r17,r2
 4042e7c:	8908983a 	sll	r4,r17,r4
 4042e80:	1884d83a 	srl	r2,r3,r2
 4042e84:	5222b03a 	or	r17,r10,r8
 4042e88:	2006c03a 	cmpne	r3,r4,zero
 4042e8c:	88e2b03a 	or	r17,r17,r3
 4042e90:	89a3883a 	add	r17,r17,r6
 4042e94:	1145883a 	add	r2,r2,r5
 4042e98:	898d803a 	cmpltu	r6,r17,r6
 4042e9c:	3087883a 	add	r3,r6,r2
 4042ea0:	4821883a 	mov	r16,r9
 4042ea4:	003ed906 	br	4042a0c <__flash_rwdata_start+0xffff1ca4>
 4042ea8:	2984b03a 	or	r2,r5,r6
 4042eac:	10004226 	beq	r2,zero,4042fb8 <__subdf3+0x82c>
 4042eb0:	1808d0fa 	srli	r4,r3,3
 4042eb4:	8822d0fa 	srli	r17,r17,3
 4042eb8:	1806977a 	slli	r3,r3,29
 4042ebc:	2080022c 	andhi	r2,r4,8
 4042ec0:	1c62b03a 	or	r17,r3,r17
 4042ec4:	10000826 	beq	r2,zero,4042ee8 <__subdf3+0x75c>
 4042ec8:	2812d0fa 	srli	r9,r5,3
 4042ecc:	4880022c 	andhi	r2,r9,8
 4042ed0:	1000051e 	bne	r2,zero,4042ee8 <__subdf3+0x75c>
 4042ed4:	300cd0fa 	srli	r6,r6,3
 4042ed8:	2804977a 	slli	r2,r5,29
 4042edc:	4809883a 	mov	r4,r9
 4042ee0:	3825883a 	mov	r18,r7
 4042ee4:	11a2b03a 	or	r17,r2,r6
 4042ee8:	8806d77a 	srli	r3,r17,29
 4042eec:	200890fa 	slli	r4,r4,3
 4042ef0:	882290fa 	slli	r17,r17,3
 4042ef4:	0401ffc4 	movi	r16,2047
 4042ef8:	1906b03a 	or	r3,r3,r4
 4042efc:	003e4406 	br	4042810 <__flash_rwdata_start+0xffff1aa8>
 4042f00:	2984b03a 	or	r2,r5,r6
 4042f04:	103e4226 	beq	r2,zero,4042810 <__flash_rwdata_start+0xffff1aa8>
 4042f08:	8989c83a 	sub	r4,r17,r6
 4042f0c:	8911803a 	cmpltu	r8,r17,r4
 4042f10:	1945c83a 	sub	r2,r3,r5
 4042f14:	1205c83a 	sub	r2,r2,r8
 4042f18:	1200202c 	andhi	r8,r2,128
 4042f1c:	403e9a26 	beq	r8,zero,4042988 <__flash_rwdata_start+0xffff1c20>
 4042f20:	3463c83a 	sub	r17,r6,r17
 4042f24:	28c5c83a 	sub	r2,r5,r3
 4042f28:	344d803a 	cmpltu	r6,r6,r17
 4042f2c:	1187c83a 	sub	r3,r2,r6
 4042f30:	3825883a 	mov	r18,r7
 4042f34:	003e3606 	br	4042810 <__flash_rwdata_start+0xffff1aa8>
 4042f38:	0101ffc4 	movi	r4,2047
 4042f3c:	493fc71e 	bne	r9,r4,4042e5c <__flash_rwdata_start+0xffff20f4>
 4042f40:	2807883a 	mov	r3,r5
 4042f44:	3023883a 	mov	r17,r6
 4042f48:	4821883a 	mov	r16,r9
 4042f4c:	003e3006 	br	4042810 <__flash_rwdata_start+0xffff1aa8>
 4042f50:	10003626 	beq	r2,zero,404302c <__subdf3+0x8a0>
 4042f54:	2984b03a 	or	r2,r5,r6
 4042f58:	10001726 	beq	r2,zero,4042fb8 <__subdf3+0x82c>
 4042f5c:	1808d0fa 	srli	r4,r3,3
 4042f60:	8822d0fa 	srli	r17,r17,3
 4042f64:	1806977a 	slli	r3,r3,29
 4042f68:	2080022c 	andhi	r2,r4,8
 4042f6c:	1c62b03a 	or	r17,r3,r17
 4042f70:	10000726 	beq	r2,zero,4042f90 <__subdf3+0x804>
 4042f74:	2812d0fa 	srli	r9,r5,3
 4042f78:	4880022c 	andhi	r2,r9,8
 4042f7c:	1000041e 	bne	r2,zero,4042f90 <__subdf3+0x804>
 4042f80:	300cd0fa 	srli	r6,r6,3
 4042f84:	2804977a 	slli	r2,r5,29
 4042f88:	4809883a 	mov	r4,r9
 4042f8c:	11a2b03a 	or	r17,r2,r6
 4042f90:	8806d77a 	srli	r3,r17,29
 4042f94:	200890fa 	slli	r4,r4,3
 4042f98:	882290fa 	slli	r17,r17,3
 4042f9c:	3825883a 	mov	r18,r7
 4042fa0:	1906b03a 	or	r3,r3,r4
 4042fa4:	0401ffc4 	movi	r16,2047
 4042fa8:	003e1906 	br	4042810 <__flash_rwdata_start+0xffff1aa8>
 4042fac:	000b883a 	mov	r5,zero
 4042fb0:	0005883a 	mov	r2,zero
 4042fb4:	003e2e06 	br	4042870 <__flash_rwdata_start+0xffff1b08>
 4042fb8:	0401ffc4 	movi	r16,2047
 4042fbc:	003e1406 	br	4042810 <__flash_rwdata_start+0xffff1aa8>
 4042fc0:	0005883a 	mov	r2,zero
 4042fc4:	003f7506 	br	4042d9c <__flash_rwdata_start+0xffff2034>
 4042fc8:	0005883a 	mov	r2,zero
 4042fcc:	0009883a 	mov	r4,zero
 4042fd0:	003e7806 	br	40429b4 <__flash_rwdata_start+0xffff1c4c>
 4042fd4:	123ff804 	addi	r8,r2,-32
 4042fd8:	01000804 	movi	r4,32
 4042fdc:	1a10d83a 	srl	r8,r3,r8
 4042fe0:	11002526 	beq	r2,r4,4043078 <__subdf3+0x8ec>
 4042fe4:	01001004 	movi	r4,64
 4042fe8:	2085c83a 	sub	r2,r4,r2
 4042fec:	1884983a 	sll	r2,r3,r2
 4042ff0:	1444b03a 	or	r2,r2,r17
 4042ff4:	1004c03a 	cmpne	r2,r2,zero
 4042ff8:	40a2b03a 	or	r17,r8,r2
 4042ffc:	0005883a 	mov	r2,zero
 4043000:	003f1606 	br	4042c5c <__flash_rwdata_start+0xffff1ef4>
 4043004:	02000434 	movhi	r8,16
 4043008:	0009883a 	mov	r4,zero
 404300c:	423fffc4 	addi	r8,r8,-1
 4043010:	00bfffc4 	movi	r2,-1
 4043014:	0401ffc4 	movi	r16,2047
 4043018:	003e6606 	br	40429b4 <__flash_rwdata_start+0xffff1c4c>
 404301c:	1c62b03a 	or	r17,r3,r17
 4043020:	8822c03a 	cmpne	r17,r17,zero
 4043024:	0005883a 	mov	r2,zero
 4043028:	003f9906 	br	4042e90 <__flash_rwdata_start+0xffff2128>
 404302c:	2807883a 	mov	r3,r5
 4043030:	3023883a 	mov	r17,r6
 4043034:	0401ffc4 	movi	r16,2047
 4043038:	003df506 	br	4042810 <__flash_rwdata_start+0xffff1aa8>
 404303c:	2807883a 	mov	r3,r5
 4043040:	3023883a 	mov	r17,r6
 4043044:	003df206 	br	4042810 <__flash_rwdata_start+0xffff1aa8>
 4043048:	123ff804 	addi	r8,r2,-32
 404304c:	01000804 	movi	r4,32
 4043050:	1a10d83a 	srl	r8,r3,r8
 4043054:	11000a26 	beq	r2,r4,4043080 <__subdf3+0x8f4>
 4043058:	01001004 	movi	r4,64
 404305c:	2085c83a 	sub	r2,r4,r2
 4043060:	1884983a 	sll	r2,r3,r2
 4043064:	1444b03a 	or	r2,r2,r17
 4043068:	1004c03a 	cmpne	r2,r2,zero
 404306c:	40a2b03a 	or	r17,r8,r2
 4043070:	0005883a 	mov	r2,zero
 4043074:	003f8606 	br	4042e90 <__flash_rwdata_start+0xffff2128>
 4043078:	0005883a 	mov	r2,zero
 404307c:	003fdc06 	br	4042ff0 <__flash_rwdata_start+0xffff2288>
 4043080:	0005883a 	mov	r2,zero
 4043084:	003ff706 	br	4043064 <__flash_rwdata_start+0xffff22fc>

04043088 <__fixdfsi>:
 4043088:	280cd53a 	srli	r6,r5,20
 404308c:	00c00434 	movhi	r3,16
 4043090:	18ffffc4 	addi	r3,r3,-1
 4043094:	3181ffcc 	andi	r6,r6,2047
 4043098:	01c0ff84 	movi	r7,1022
 404309c:	28c6703a 	and	r3,r5,r3
 40430a0:	280ad7fa 	srli	r5,r5,31
 40430a4:	3980120e 	bge	r7,r6,40430f0 <__fixdfsi+0x68>
 40430a8:	00810744 	movi	r2,1053
 40430ac:	11800c16 	blt	r2,r6,40430e0 <__fixdfsi+0x58>
 40430b0:	00810cc4 	movi	r2,1075
 40430b4:	1185c83a 	sub	r2,r2,r6
 40430b8:	01c007c4 	movi	r7,31
 40430bc:	18c00434 	orhi	r3,r3,16
 40430c0:	38800d16 	blt	r7,r2,40430f8 <__fixdfsi+0x70>
 40430c4:	31befb44 	addi	r6,r6,-1043
 40430c8:	2084d83a 	srl	r2,r4,r2
 40430cc:	1986983a 	sll	r3,r3,r6
 40430d0:	1884b03a 	or	r2,r3,r2
 40430d4:	28000726 	beq	r5,zero,40430f4 <__fixdfsi+0x6c>
 40430d8:	0085c83a 	sub	r2,zero,r2
 40430dc:	f800283a 	ret
 40430e0:	00a00034 	movhi	r2,32768
 40430e4:	10bfffc4 	addi	r2,r2,-1
 40430e8:	2885883a 	add	r2,r5,r2
 40430ec:	f800283a 	ret
 40430f0:	0005883a 	mov	r2,zero
 40430f4:	f800283a 	ret
 40430f8:	008104c4 	movi	r2,1043
 40430fc:	1185c83a 	sub	r2,r2,r6
 4043100:	1884d83a 	srl	r2,r3,r2
 4043104:	003ff306 	br	40430d4 <__flash_rwdata_start+0xffff236c>

04043108 <__floatsidf>:
 4043108:	defffd04 	addi	sp,sp,-12
 404310c:	dfc00215 	stw	ra,8(sp)
 4043110:	dc400115 	stw	r17,4(sp)
 4043114:	dc000015 	stw	r16,0(sp)
 4043118:	20002b26 	beq	r4,zero,40431c8 <__floatsidf+0xc0>
 404311c:	2023883a 	mov	r17,r4
 4043120:	2020d7fa 	srli	r16,r4,31
 4043124:	20002d16 	blt	r4,zero,40431dc <__floatsidf+0xd4>
 4043128:	8809883a 	mov	r4,r17
 404312c:	404328c0 	call	404328c <__clzsi2>
 4043130:	01410784 	movi	r5,1054
 4043134:	288bc83a 	sub	r5,r5,r2
 4043138:	01010cc4 	movi	r4,1075
 404313c:	2149c83a 	sub	r4,r4,r5
 4043140:	00c007c4 	movi	r3,31
 4043144:	1900160e 	bge	r3,r4,40431a0 <__floatsidf+0x98>
 4043148:	00c104c4 	movi	r3,1043
 404314c:	1947c83a 	sub	r3,r3,r5
 4043150:	88c6983a 	sll	r3,r17,r3
 4043154:	00800434 	movhi	r2,16
 4043158:	10bfffc4 	addi	r2,r2,-1
 404315c:	1886703a 	and	r3,r3,r2
 4043160:	2941ffcc 	andi	r5,r5,2047
 4043164:	800d883a 	mov	r6,r16
 4043168:	0005883a 	mov	r2,zero
 404316c:	280a953a 	slli	r5,r5,20
 4043170:	31803fcc 	andi	r6,r6,255
 4043174:	01000434 	movhi	r4,16
 4043178:	300c97fa 	slli	r6,r6,31
 404317c:	213fffc4 	addi	r4,r4,-1
 4043180:	1906703a 	and	r3,r3,r4
 4043184:	1946b03a 	or	r3,r3,r5
 4043188:	1986b03a 	or	r3,r3,r6
 404318c:	dfc00217 	ldw	ra,8(sp)
 4043190:	dc400117 	ldw	r17,4(sp)
 4043194:	dc000017 	ldw	r16,0(sp)
 4043198:	dec00304 	addi	sp,sp,12
 404319c:	f800283a 	ret
 40431a0:	00c002c4 	movi	r3,11
 40431a4:	1887c83a 	sub	r3,r3,r2
 40431a8:	88c6d83a 	srl	r3,r17,r3
 40431ac:	8904983a 	sll	r2,r17,r4
 40431b0:	01000434 	movhi	r4,16
 40431b4:	213fffc4 	addi	r4,r4,-1
 40431b8:	2941ffcc 	andi	r5,r5,2047
 40431bc:	1906703a 	and	r3,r3,r4
 40431c0:	800d883a 	mov	r6,r16
 40431c4:	003fe906 	br	404316c <__flash_rwdata_start+0xffff2404>
 40431c8:	000d883a 	mov	r6,zero
 40431cc:	000b883a 	mov	r5,zero
 40431d0:	0007883a 	mov	r3,zero
 40431d4:	0005883a 	mov	r2,zero
 40431d8:	003fe406 	br	404316c <__flash_rwdata_start+0xffff2404>
 40431dc:	0123c83a 	sub	r17,zero,r4
 40431e0:	003fd106 	br	4043128 <__flash_rwdata_start+0xffff23c0>

040431e4 <__floatunsidf>:
 40431e4:	defffe04 	addi	sp,sp,-8
 40431e8:	dc000015 	stw	r16,0(sp)
 40431ec:	dfc00115 	stw	ra,4(sp)
 40431f0:	2021883a 	mov	r16,r4
 40431f4:	20002226 	beq	r4,zero,4043280 <__floatunsidf+0x9c>
 40431f8:	404328c0 	call	404328c <__clzsi2>
 40431fc:	01010784 	movi	r4,1054
 4043200:	2089c83a 	sub	r4,r4,r2
 4043204:	01810cc4 	movi	r6,1075
 4043208:	310dc83a 	sub	r6,r6,r4
 404320c:	00c007c4 	movi	r3,31
 4043210:	1980120e 	bge	r3,r6,404325c <__floatunsidf+0x78>
 4043214:	00c104c4 	movi	r3,1043
 4043218:	1907c83a 	sub	r3,r3,r4
 404321c:	80ca983a 	sll	r5,r16,r3
 4043220:	00800434 	movhi	r2,16
 4043224:	10bfffc4 	addi	r2,r2,-1
 4043228:	2101ffcc 	andi	r4,r4,2047
 404322c:	0021883a 	mov	r16,zero
 4043230:	288a703a 	and	r5,r5,r2
 4043234:	2008953a 	slli	r4,r4,20
 4043238:	00c00434 	movhi	r3,16
 404323c:	18ffffc4 	addi	r3,r3,-1
 4043240:	28c6703a 	and	r3,r5,r3
 4043244:	8005883a 	mov	r2,r16
 4043248:	1906b03a 	or	r3,r3,r4
 404324c:	dfc00117 	ldw	ra,4(sp)
 4043250:	dc000017 	ldw	r16,0(sp)
 4043254:	dec00204 	addi	sp,sp,8
 4043258:	f800283a 	ret
 404325c:	00c002c4 	movi	r3,11
 4043260:	188bc83a 	sub	r5,r3,r2
 4043264:	814ad83a 	srl	r5,r16,r5
 4043268:	00c00434 	movhi	r3,16
 404326c:	18ffffc4 	addi	r3,r3,-1
 4043270:	81a0983a 	sll	r16,r16,r6
 4043274:	2101ffcc 	andi	r4,r4,2047
 4043278:	28ca703a 	and	r5,r5,r3
 404327c:	003fed06 	br	4043234 <__flash_rwdata_start+0xffff24cc>
 4043280:	0009883a 	mov	r4,zero
 4043284:	000b883a 	mov	r5,zero
 4043288:	003fea06 	br	4043234 <__flash_rwdata_start+0xffff24cc>

0404328c <__clzsi2>:
 404328c:	00bfffd4 	movui	r2,65535
 4043290:	11000536 	bltu	r2,r4,40432a8 <__clzsi2+0x1c>
 4043294:	00803fc4 	movi	r2,255
 4043298:	11000f36 	bltu	r2,r4,40432d8 <__clzsi2+0x4c>
 404329c:	00800804 	movi	r2,32
 40432a0:	0007883a 	mov	r3,zero
 40432a4:	00000506 	br	40432bc <__clzsi2+0x30>
 40432a8:	00804034 	movhi	r2,256
 40432ac:	10bfffc4 	addi	r2,r2,-1
 40432b0:	11000c2e 	bgeu	r2,r4,40432e4 <__clzsi2+0x58>
 40432b4:	00800204 	movi	r2,8
 40432b8:	00c00604 	movi	r3,24
 40432bc:	20c8d83a 	srl	r4,r4,r3
 40432c0:	00c00034 	movhi	r3,0
 40432c4:	18c01f04 	addi	r3,r3,124
 40432c8:	1909883a 	add	r4,r3,r4
 40432cc:	20c00003 	ldbu	r3,0(r4)
 40432d0:	10c5c83a 	sub	r2,r2,r3
 40432d4:	f800283a 	ret
 40432d8:	00800604 	movi	r2,24
 40432dc:	00c00204 	movi	r3,8
 40432e0:	003ff606 	br	40432bc <__flash_rwdata_start+0xffff2554>
 40432e4:	00800404 	movi	r2,16
 40432e8:	1007883a 	mov	r3,r2
 40432ec:	003ff306 	br	40432bc <__flash_rwdata_start+0xffff2554>

040432f0 <_printf_r>:
 40432f0:	defffd04 	addi	sp,sp,-12
 40432f4:	2805883a 	mov	r2,r5
 40432f8:	dfc00015 	stw	ra,0(sp)
 40432fc:	d9800115 	stw	r6,4(sp)
 4043300:	d9c00215 	stw	r7,8(sp)
 4043304:	21400217 	ldw	r5,8(r4)
 4043308:	d9c00104 	addi	r7,sp,4
 404330c:	100d883a 	mov	r6,r2
 4043310:	404335c0 	call	404335c <___vfprintf_internal_r>
 4043314:	dfc00017 	ldw	ra,0(sp)
 4043318:	dec00304 	addi	sp,sp,12
 404331c:	f800283a 	ret

04043320 <printf>:
 4043320:	defffc04 	addi	sp,sp,-16
 4043324:	dfc00015 	stw	ra,0(sp)
 4043328:	d9400115 	stw	r5,4(sp)
 404332c:	d9800215 	stw	r6,8(sp)
 4043330:	d9c00315 	stw	r7,12(sp)
 4043334:	00800034 	movhi	r2,0
 4043338:	10879a04 	addi	r2,r2,7784
 404333c:	10800017 	ldw	r2,0(r2)
 4043340:	200b883a 	mov	r5,r4
 4043344:	d9800104 	addi	r6,sp,4
 4043348:	11000217 	ldw	r4,8(r2)
 404334c:	40456380 	call	4045638 <__vfprintf_internal>
 4043350:	dfc00017 	ldw	ra,0(sp)
 4043354:	dec00404 	addi	sp,sp,16
 4043358:	f800283a 	ret

0404335c <___vfprintf_internal_r>:
 404335c:	deffb804 	addi	sp,sp,-288
 4043360:	dfc04715 	stw	ra,284(sp)
 4043364:	ddc04515 	stw	r23,276(sp)
 4043368:	dd404315 	stw	r21,268(sp)
 404336c:	d9002d15 	stw	r4,180(sp)
 4043370:	282f883a 	mov	r23,r5
 4043374:	302b883a 	mov	r21,r6
 4043378:	d9c02e15 	stw	r7,184(sp)
 404337c:	df004615 	stw	fp,280(sp)
 4043380:	dd804415 	stw	r22,272(sp)
 4043384:	dd004215 	stw	r20,264(sp)
 4043388:	dcc04115 	stw	r19,260(sp)
 404338c:	dc804015 	stw	r18,256(sp)
 4043390:	dc403f15 	stw	r17,252(sp)
 4043394:	dc003e15 	stw	r16,248(sp)
 4043398:	4047dd40 	call	4047dd4 <_localeconv_r>
 404339c:	10800017 	ldw	r2,0(r2)
 40433a0:	1009883a 	mov	r4,r2
 40433a4:	d8803415 	stw	r2,208(sp)
 40433a8:	4049eb80 	call	4049eb8 <strlen>
 40433ac:	d8803715 	stw	r2,220(sp)
 40433b0:	d8802d17 	ldw	r2,180(sp)
 40433b4:	10000226 	beq	r2,zero,40433c0 <___vfprintf_internal_r+0x64>
 40433b8:	10800e17 	ldw	r2,56(r2)
 40433bc:	1000fb26 	beq	r2,zero,40437ac <___vfprintf_internal_r+0x450>
 40433c0:	b880030b 	ldhu	r2,12(r23)
 40433c4:	10c8000c 	andi	r3,r2,8192
 40433c8:	1800061e 	bne	r3,zero,40433e4 <___vfprintf_internal_r+0x88>
 40433cc:	b9001917 	ldw	r4,100(r23)
 40433d0:	00f7ffc4 	movi	r3,-8193
 40433d4:	10880014 	ori	r2,r2,8192
 40433d8:	20c6703a 	and	r3,r4,r3
 40433dc:	b880030d 	sth	r2,12(r23)
 40433e0:	b8c01915 	stw	r3,100(r23)
 40433e4:	10c0020c 	andi	r3,r2,8
 40433e8:	1800c326 	beq	r3,zero,40436f8 <___vfprintf_internal_r+0x39c>
 40433ec:	b8c00417 	ldw	r3,16(r23)
 40433f0:	1800c126 	beq	r3,zero,40436f8 <___vfprintf_internal_r+0x39c>
 40433f4:	1080068c 	andi	r2,r2,26
 40433f8:	00c00284 	movi	r3,10
 40433fc:	10c0c626 	beq	r2,r3,4043718 <___vfprintf_internal_r+0x3bc>
 4043400:	d8c00404 	addi	r3,sp,16
 4043404:	05000034 	movhi	r20,0
 4043408:	d9001e04 	addi	r4,sp,120
 404340c:	a5006f84 	addi	r20,r20,446
 4043410:	d8c01e15 	stw	r3,120(sp)
 4043414:	d8002015 	stw	zero,128(sp)
 4043418:	d8001f15 	stw	zero,124(sp)
 404341c:	d8003315 	stw	zero,204(sp)
 4043420:	d8003615 	stw	zero,216(sp)
 4043424:	d8003815 	stw	zero,224(sp)
 4043428:	1811883a 	mov	r8,r3
 404342c:	d8003915 	stw	zero,228(sp)
 4043430:	d8003a15 	stw	zero,232(sp)
 4043434:	d8002f15 	stw	zero,188(sp)
 4043438:	d9002815 	stw	r4,160(sp)
 404343c:	a8800007 	ldb	r2,0(r21)
 4043440:	10028b26 	beq	r2,zero,4043e70 <___vfprintf_internal_r+0xb14>
 4043444:	00c00944 	movi	r3,37
 4043448:	a823883a 	mov	r17,r21
 404344c:	10c0021e 	bne	r2,r3,4043458 <___vfprintf_internal_r+0xfc>
 4043450:	00001406 	br	40434a4 <___vfprintf_internal_r+0x148>
 4043454:	10c00326 	beq	r2,r3,4043464 <___vfprintf_internal_r+0x108>
 4043458:	8c400044 	addi	r17,r17,1
 404345c:	88800007 	ldb	r2,0(r17)
 4043460:	103ffc1e 	bne	r2,zero,4043454 <__flash_rwdata_start+0xffff26ec>
 4043464:	8d61c83a 	sub	r16,r17,r21
 4043468:	80000e26 	beq	r16,zero,40434a4 <___vfprintf_internal_r+0x148>
 404346c:	d8c02017 	ldw	r3,128(sp)
 4043470:	d8801f17 	ldw	r2,124(sp)
 4043474:	45400015 	stw	r21,0(r8)
 4043478:	1c07883a 	add	r3,r3,r16
 404347c:	10800044 	addi	r2,r2,1
 4043480:	d8c02015 	stw	r3,128(sp)
 4043484:	44000115 	stw	r16,4(r8)
 4043488:	d8801f15 	stw	r2,124(sp)
 404348c:	00c001c4 	movi	r3,7
 4043490:	1880a916 	blt	r3,r2,4043738 <___vfprintf_internal_r+0x3dc>
 4043494:	42000204 	addi	r8,r8,8
 4043498:	d9402f17 	ldw	r5,188(sp)
 404349c:	2c0b883a 	add	r5,r5,r16
 40434a0:	d9402f15 	stw	r5,188(sp)
 40434a4:	88800007 	ldb	r2,0(r17)
 40434a8:	1000aa26 	beq	r2,zero,4043754 <___vfprintf_internal_r+0x3f8>
 40434ac:	8d400044 	addi	r21,r17,1
 40434b0:	8c400047 	ldb	r17,1(r17)
 40434b4:	0021883a 	mov	r16,zero
 40434b8:	00bfffc4 	movi	r2,-1
 40434bc:	0025883a 	mov	r18,zero
 40434c0:	dc002905 	stb	r16,164(sp)
 40434c4:	d8002785 	stb	zero,158(sp)
 40434c8:	d8002b05 	stb	zero,172(sp)
 40434cc:	d8802a15 	stw	r2,168(sp)
 40434d0:	d8003115 	stw	zero,196(sp)
 40434d4:	04c01604 	movi	r19,88
 40434d8:	05800244 	movi	r22,9
 40434dc:	9021883a 	mov	r16,r18
 40434e0:	4039883a 	mov	fp,r8
 40434e4:	ad400044 	addi	r21,r21,1
 40434e8:	88bff804 	addi	r2,r17,-32
 40434ec:	98833236 	bltu	r19,r2,40441b8 <___vfprintf_internal_r+0xe5c>
 40434f0:	100490ba 	slli	r2,r2,2
 40434f4:	00c10134 	movhi	r3,1028
 40434f8:	18cd4204 	addi	r3,r3,13576
 40434fc:	10c5883a 	add	r2,r2,r3
 4043500:	10800017 	ldw	r2,0(r2)
 4043504:	1000683a 	jmp	r2
 4043508:	040440b0 	cmpltui	r16,zero,4354
 404350c:	040441b8 	rdprs	r16,zero,4358
 4043510:	040441b8 	rdprs	r16,zero,4358
 4043514:	040440d0 	cmplti	r16,zero,4355
 4043518:	040441b8 	rdprs	r16,zero,4358
 404351c:	040441b8 	rdprs	r16,zero,4358
 4043520:	040441b8 	rdprs	r16,zero,4358
 4043524:	040441b8 	rdprs	r16,zero,4358
 4043528:	040441b8 	rdprs	r16,zero,4358
 404352c:	040441b8 	rdprs	r16,zero,4358
 4043530:	040437b8 	rdprs	r16,zero,4318
 4043534:	04043fc0 	call	4043fc <_gp+0x3fa5a0>
 4043538:	040441b8 	rdprs	r16,zero,4358
 404353c:	0404367c 	xorhi	r16,zero,4313
 4043540:	040437dc 	xori	r16,zero,4319
 4043544:	040441b8 	rdprs	r16,zero,4358
 4043548:	0404382c 	andhi	r16,zero,4320
 404354c:	04043838 	rdprs	r16,zero,4320
 4043550:	04043838 	rdprs	r16,zero,4320
 4043554:	04043838 	rdprs	r16,zero,4320
 4043558:	04043838 	rdprs	r16,zero,4320
 404355c:	04043838 	rdprs	r16,zero,4320
 4043560:	04043838 	rdprs	r16,zero,4320
 4043564:	04043838 	rdprs	r16,zero,4320
 4043568:	04043838 	rdprs	r16,zero,4320
 404356c:	04043838 	rdprs	r16,zero,4320
 4043570:	040441b8 	rdprs	r16,zero,4358
 4043574:	040441b8 	rdprs	r16,zero,4358
 4043578:	040441b8 	rdprs	r16,zero,4358
 404357c:	040441b8 	rdprs	r16,zero,4358
 4043580:	040441b8 	rdprs	r16,zero,4358
 4043584:	040441b8 	rdprs	r16,zero,4358
 4043588:	040441b8 	rdprs	r16,zero,4358
 404358c:	040441b8 	rdprs	r16,zero,4358
 4043590:	040441b8 	rdprs	r16,zero,4358
 4043594:	040441b8 	rdprs	r16,zero,4358
 4043598:	04043874 	movhi	r16,4321
 404359c:	0404393c 	xorhi	r16,zero,4324
 40435a0:	040441b8 	rdprs	r16,zero,4358
 40435a4:	0404393c 	xorhi	r16,zero,4324
 40435a8:	040441b8 	rdprs	r16,zero,4358
 40435ac:	040441b8 	rdprs	r16,zero,4358
 40435b0:	040441b8 	rdprs	r16,zero,4358
 40435b4:	040441b8 	rdprs	r16,zero,4358
 40435b8:	040439e8 	cmpgeui	r16,zero,4327
 40435bc:	040441b8 	rdprs	r16,zero,4358
 40435c0:	040441b8 	rdprs	r16,zero,4358
 40435c4:	040439f4 	movhi	r16,4327
 40435c8:	040441b8 	rdprs	r16,zero,4358
 40435cc:	040441b8 	rdprs	r16,zero,4358
 40435d0:	040441b8 	rdprs	r16,zero,4358
 40435d4:	040441b8 	rdprs	r16,zero,4358
 40435d8:	040441b8 	rdprs	r16,zero,4358
 40435dc:	04043e78 	rdprs	r16,zero,4345
 40435e0:	040441b8 	rdprs	r16,zero,4358
 40435e4:	040441b8 	rdprs	r16,zero,4358
 40435e8:	04043ee4 	muli	r16,zero,4347
 40435ec:	040441b8 	rdprs	r16,zero,4358
 40435f0:	040441b8 	rdprs	r16,zero,4358
 40435f4:	040441b8 	rdprs	r16,zero,4358
 40435f8:	040441b8 	rdprs	r16,zero,4358
 40435fc:	040441b8 	rdprs	r16,zero,4358
 4043600:	040441b8 	rdprs	r16,zero,4358
 4043604:	040441b8 	rdprs	r16,zero,4358
 4043608:	040441b8 	rdprs	r16,zero,4358
 404360c:	040441b8 	rdprs	r16,zero,4358
 4043610:	040441b8 	rdprs	r16,zero,4358
 4043614:	0404415c 	xori	r16,zero,4357
 4043618:	040440dc 	xori	r16,zero,4355
 404361c:	0404393c 	xorhi	r16,zero,4324
 4043620:	0404393c 	xorhi	r16,zero,4324
 4043624:	0404393c 	xorhi	r16,zero,4324
 4043628:	040440fc 	xorhi	r16,zero,4355
 404362c:	040440dc 	xori	r16,zero,4355
 4043630:	040441b8 	rdprs	r16,zero,4358
 4043634:	040441b8 	rdprs	r16,zero,4358
 4043638:	04044108 	cmpgei	r16,zero,4356
 404363c:	040441b8 	rdprs	r16,zero,4358
 4043640:	0404411c 	xori	r16,zero,4356
 4043644:	04043fa0 	cmpeqi	r16,zero,4350
 4043648:	04043688 	cmpgei	r16,zero,4314
 404364c:	04043fd8 	cmpnei	r16,zero,4351
 4043650:	040441b8 	rdprs	r16,zero,4358
 4043654:	04043fe4 	muli	r16,zero,4351
 4043658:	040441b8 	rdprs	r16,zero,4358
 404365c:	04044048 	cmpgei	r16,zero,4353
 4043660:	040441b8 	rdprs	r16,zero,4358
 4043664:	040441b8 	rdprs	r16,zero,4358
 4043668:	04044068 	cmpgeui	r16,zero,4353
 404366c:	d8c03117 	ldw	r3,196(sp)
 4043670:	d8802e15 	stw	r2,184(sp)
 4043674:	00c7c83a 	sub	r3,zero,r3
 4043678:	d8c03115 	stw	r3,196(sp)
 404367c:	84000114 	ori	r16,r16,4
 4043680:	ac400007 	ldb	r17,0(r21)
 4043684:	003f9706 	br	40434e4 <__flash_rwdata_start+0xffff277c>
 4043688:	00800c04 	movi	r2,48
 404368c:	d8802705 	stb	r2,156(sp)
 4043690:	00801e04 	movi	r2,120
 4043694:	d8802745 	stb	r2,157(sp)
 4043698:	d9002a17 	ldw	r4,168(sp)
 404369c:	d8802e17 	ldw	r2,184(sp)
 40436a0:	d8002785 	stb	zero,158(sp)
 40436a4:	e011883a 	mov	r8,fp
 40436a8:	10c00104 	addi	r3,r2,4
 40436ac:	14c00017 	ldw	r19,0(r2)
 40436b0:	002d883a 	mov	r22,zero
 40436b4:	80800094 	ori	r2,r16,2
 40436b8:	2002ca16 	blt	r4,zero,40441e4 <___vfprintf_internal_r+0xe88>
 40436bc:	00bfdfc4 	movi	r2,-129
 40436c0:	80a4703a 	and	r18,r16,r2
 40436c4:	d8c02e15 	stw	r3,184(sp)
 40436c8:	94800094 	ori	r18,r18,2
 40436cc:	9802b41e 	bne	r19,zero,40441a0 <___vfprintf_internal_r+0xe44>
 40436d0:	01400034 	movhi	r5,0
 40436d4:	29406804 	addi	r5,r5,416
 40436d8:	d9403915 	stw	r5,228(sp)
 40436dc:	04401e04 	movi	r17,120
 40436e0:	d8802a17 	ldw	r2,168(sp)
 40436e4:	0039883a 	mov	fp,zero
 40436e8:	1001fa26 	beq	r2,zero,4043ed4 <___vfprintf_internal_r+0xb78>
 40436ec:	0027883a 	mov	r19,zero
 40436f0:	002d883a 	mov	r22,zero
 40436f4:	00021906 	br	4043f5c <___vfprintf_internal_r+0xc00>
 40436f8:	d9002d17 	ldw	r4,180(sp)
 40436fc:	b80b883a 	mov	r5,r23
 4043700:	40457100 	call	4045710 <__swsetup_r>
 4043704:	1005dc1e 	bne	r2,zero,4044e78 <___vfprintf_internal_r+0x1b1c>
 4043708:	b880030b 	ldhu	r2,12(r23)
 404370c:	00c00284 	movi	r3,10
 4043710:	1080068c 	andi	r2,r2,26
 4043714:	10ff3a1e 	bne	r2,r3,4043400 <__flash_rwdata_start+0xffff2698>
 4043718:	b880038f 	ldh	r2,14(r23)
 404371c:	103f3816 	blt	r2,zero,4043400 <__flash_rwdata_start+0xffff2698>
 4043720:	d9c02e17 	ldw	r7,184(sp)
 4043724:	d9002d17 	ldw	r4,180(sp)
 4043728:	a80d883a 	mov	r6,r21
 404372c:	b80b883a 	mov	r5,r23
 4043730:	40456540 	call	4045654 <__sbprintf>
 4043734:	00001106 	br	404377c <___vfprintf_internal_r+0x420>
 4043738:	d9002d17 	ldw	r4,180(sp)
 404373c:	d9801e04 	addi	r6,sp,120
 4043740:	b80b883a 	mov	r5,r23
 4043744:	404a04c0 	call	404a04c <__sprint_r>
 4043748:	1000081e 	bne	r2,zero,404376c <___vfprintf_internal_r+0x410>
 404374c:	da000404 	addi	r8,sp,16
 4043750:	003f5106 	br	4043498 <__flash_rwdata_start+0xffff2730>
 4043754:	d8802017 	ldw	r2,128(sp)
 4043758:	10000426 	beq	r2,zero,404376c <___vfprintf_internal_r+0x410>
 404375c:	d9002d17 	ldw	r4,180(sp)
 4043760:	d9801e04 	addi	r6,sp,120
 4043764:	b80b883a 	mov	r5,r23
 4043768:	404a04c0 	call	404a04c <__sprint_r>
 404376c:	b880030b 	ldhu	r2,12(r23)
 4043770:	1080100c 	andi	r2,r2,64
 4043774:	1005c01e 	bne	r2,zero,4044e78 <___vfprintf_internal_r+0x1b1c>
 4043778:	d8802f17 	ldw	r2,188(sp)
 404377c:	dfc04717 	ldw	ra,284(sp)
 4043780:	df004617 	ldw	fp,280(sp)
 4043784:	ddc04517 	ldw	r23,276(sp)
 4043788:	dd804417 	ldw	r22,272(sp)
 404378c:	dd404317 	ldw	r21,268(sp)
 4043790:	dd004217 	ldw	r20,264(sp)
 4043794:	dcc04117 	ldw	r19,260(sp)
 4043798:	dc804017 	ldw	r18,256(sp)
 404379c:	dc403f17 	ldw	r17,252(sp)
 40437a0:	dc003e17 	ldw	r16,248(sp)
 40437a4:	dec04804 	addi	sp,sp,288
 40437a8:	f800283a 	ret
 40437ac:	d9002d17 	ldw	r4,180(sp)
 40437b0:	404771c0 	call	404771c <__sinit>
 40437b4:	003f0206 	br	40433c0 <__flash_rwdata_start+0xffff2658>
 40437b8:	d9002e17 	ldw	r4,184(sp)
 40437bc:	d9402e17 	ldw	r5,184(sp)
 40437c0:	21000017 	ldw	r4,0(r4)
 40437c4:	28800104 	addi	r2,r5,4
 40437c8:	d9003115 	stw	r4,196(sp)
 40437cc:	203fa716 	blt	r4,zero,404366c <__flash_rwdata_start+0xffff2904>
 40437d0:	d8802e15 	stw	r2,184(sp)
 40437d4:	ac400007 	ldb	r17,0(r21)
 40437d8:	003f4206 	br	40434e4 <__flash_rwdata_start+0xffff277c>
 40437dc:	ac400007 	ldb	r17,0(r21)
 40437e0:	01000a84 	movi	r4,42
 40437e4:	a8c00044 	addi	r3,r21,1
 40437e8:	89075826 	beq	r17,r4,404554c <___vfprintf_internal_r+0x21f0>
 40437ec:	8cbff404 	addi	r18,r17,-48
 40437f0:	b486ae36 	bltu	r22,r18,40452ac <___vfprintf_internal_r+0x1f50>
 40437f4:	0009883a 	mov	r4,zero
 40437f8:	1823883a 	mov	r17,r3
 40437fc:	01400284 	movi	r5,10
 4043800:	4040ca80 	call	4040ca8 <__mulsi3>
 4043804:	88c00007 	ldb	r3,0(r17)
 4043808:	1489883a 	add	r4,r2,r18
 404380c:	8d400044 	addi	r21,r17,1
 4043810:	1cbff404 	addi	r18,r3,-48
 4043814:	a823883a 	mov	r17,r21
 4043818:	b4bff82e 	bgeu	r22,r18,40437fc <__flash_rwdata_start+0xffff2a94>
 404381c:	1823883a 	mov	r17,r3
 4043820:	2005f616 	blt	r4,zero,4044ffc <___vfprintf_internal_r+0x1ca0>
 4043824:	d9002a15 	stw	r4,168(sp)
 4043828:	003f2f06 	br	40434e8 <__flash_rwdata_start+0xffff2780>
 404382c:	84002014 	ori	r16,r16,128
 4043830:	ac400007 	ldb	r17,0(r21)
 4043834:	003f2b06 	br	40434e4 <__flash_rwdata_start+0xffff277c>
 4043838:	8cbff404 	addi	r18,r17,-48
 404383c:	d8003115 	stw	zero,196(sp)
 4043840:	0009883a 	mov	r4,zero
 4043844:	a823883a 	mov	r17,r21
 4043848:	01400284 	movi	r5,10
 404384c:	4040ca80 	call	4040ca8 <__mulsi3>
 4043850:	88c00007 	ldb	r3,0(r17)
 4043854:	9089883a 	add	r4,r18,r2
 4043858:	ad400044 	addi	r21,r21,1
 404385c:	1cbff404 	addi	r18,r3,-48
 4043860:	a823883a 	mov	r17,r21
 4043864:	b4bff82e 	bgeu	r22,r18,4043848 <__flash_rwdata_start+0xffff2ae0>
 4043868:	1823883a 	mov	r17,r3
 404386c:	d9003115 	stw	r4,196(sp)
 4043870:	003f1d06 	br	40434e8 <__flash_rwdata_start+0xffff2780>
 4043874:	8025883a 	mov	r18,r16
 4043878:	dc002903 	ldbu	r16,164(sp)
 404387c:	e011883a 	mov	r8,fp
 4043880:	84003fcc 	andi	r16,r16,255
 4043884:	8007531e 	bne	r16,zero,40455d4 <___vfprintf_internal_r+0x2278>
 4043888:	94800414 	ori	r18,r18,16
 404388c:	9080080c 	andi	r2,r18,32
 4043890:	1003a326 	beq	r2,zero,4044720 <___vfprintf_internal_r+0x13c4>
 4043894:	d9002e17 	ldw	r4,184(sp)
 4043898:	20800117 	ldw	r2,4(r4)
 404389c:	24c00017 	ldw	r19,0(r4)
 40438a0:	21000204 	addi	r4,r4,8
 40438a4:	d9002e15 	stw	r4,184(sp)
 40438a8:	102d883a 	mov	r22,r2
 40438ac:	10047316 	blt	r2,zero,4044a7c <___vfprintf_internal_r+0x1720>
 40438b0:	d9002a17 	ldw	r4,168(sp)
 40438b4:	df002783 	ldbu	fp,158(sp)
 40438b8:	2003e416 	blt	r4,zero,404484c <___vfprintf_internal_r+0x14f0>
 40438bc:	00ffdfc4 	movi	r3,-129
 40438c0:	9d84b03a 	or	r2,r19,r22
 40438c4:	90e4703a 	and	r18,r18,r3
 40438c8:	10018026 	beq	r2,zero,4043ecc <___vfprintf_internal_r+0xb70>
 40438cc:	b003ab26 	beq	r22,zero,404477c <___vfprintf_internal_r+0x1420>
 40438d0:	dc402915 	stw	r17,164(sp)
 40438d4:	dc001e04 	addi	r16,sp,120
 40438d8:	b023883a 	mov	r17,r22
 40438dc:	402d883a 	mov	r22,r8
 40438e0:	9809883a 	mov	r4,r19
 40438e4:	880b883a 	mov	r5,r17
 40438e8:	01800284 	movi	r6,10
 40438ec:	000f883a 	mov	r7,zero
 40438f0:	404d1180 	call	404d118 <__umoddi3>
 40438f4:	10800c04 	addi	r2,r2,48
 40438f8:	843fffc4 	addi	r16,r16,-1
 40438fc:	9809883a 	mov	r4,r19
 4043900:	880b883a 	mov	r5,r17
 4043904:	80800005 	stb	r2,0(r16)
 4043908:	01800284 	movi	r6,10
 404390c:	000f883a 	mov	r7,zero
 4043910:	404cb1c0 	call	404cb1c <__udivdi3>
 4043914:	1027883a 	mov	r19,r2
 4043918:	10c4b03a 	or	r2,r2,r3
 404391c:	1823883a 	mov	r17,r3
 4043920:	103fef1e 	bne	r2,zero,40438e0 <__flash_rwdata_start+0xffff2b78>
 4043924:	d8c02817 	ldw	r3,160(sp)
 4043928:	dc402917 	ldw	r17,164(sp)
 404392c:	b011883a 	mov	r8,r22
 4043930:	1c07c83a 	sub	r3,r3,r16
 4043934:	d8c02b15 	stw	r3,172(sp)
 4043938:	00005f06 	br	4043ab8 <___vfprintf_internal_r+0x75c>
 404393c:	8025883a 	mov	r18,r16
 4043940:	dc002903 	ldbu	r16,164(sp)
 4043944:	e011883a 	mov	r8,fp
 4043948:	84003fcc 	andi	r16,r16,255
 404394c:	80071e1e 	bne	r16,zero,40455c8 <___vfprintf_internal_r+0x226c>
 4043950:	9080020c 	andi	r2,r18,8
 4043954:	1004af26 	beq	r2,zero,4044c14 <___vfprintf_internal_r+0x18b8>
 4043958:	d9002e17 	ldw	r4,184(sp)
 404395c:	d9402e17 	ldw	r5,184(sp)
 4043960:	d8802e17 	ldw	r2,184(sp)
 4043964:	21000017 	ldw	r4,0(r4)
 4043968:	29400117 	ldw	r5,4(r5)
 404396c:	10800204 	addi	r2,r2,8
 4043970:	d9003615 	stw	r4,216(sp)
 4043974:	d9403815 	stw	r5,224(sp)
 4043978:	d8802e15 	stw	r2,184(sp)
 404397c:	d9003617 	ldw	r4,216(sp)
 4043980:	d9403817 	ldw	r5,224(sp)
 4043984:	da003d15 	stw	r8,244(sp)
 4043988:	04000044 	movi	r16,1
 404398c:	4049bd80 	call	4049bd8 <__fpclassifyd>
 4043990:	da003d17 	ldw	r8,244(sp)
 4043994:	1404441e 	bne	r2,r16,4044aa8 <___vfprintf_internal_r+0x174c>
 4043998:	d9003617 	ldw	r4,216(sp)
 404399c:	d9403817 	ldw	r5,224(sp)
 40439a0:	000d883a 	mov	r6,zero
 40439a4:	000f883a 	mov	r7,zero
 40439a8:	404e0100 	call	404e010 <__ledf2>
 40439ac:	da003d17 	ldw	r8,244(sp)
 40439b0:	1005e316 	blt	r2,zero,4045140 <___vfprintf_internal_r+0x1de4>
 40439b4:	df002783 	ldbu	fp,158(sp)
 40439b8:	008011c4 	movi	r2,71
 40439bc:	1445580e 	bge	r2,r17,4044f20 <___vfprintf_internal_r+0x1bc4>
 40439c0:	04000034 	movhi	r16,0
 40439c4:	84006004 	addi	r16,r16,384
 40439c8:	00c000c4 	movi	r3,3
 40439cc:	00bfdfc4 	movi	r2,-129
 40439d0:	d8c02915 	stw	r3,164(sp)
 40439d4:	90a4703a 	and	r18,r18,r2
 40439d8:	d8c02b15 	stw	r3,172(sp)
 40439dc:	d8002a15 	stw	zero,168(sp)
 40439e0:	d8003215 	stw	zero,200(sp)
 40439e4:	00003a06 	br	4043ad0 <___vfprintf_internal_r+0x774>
 40439e8:	84000214 	ori	r16,r16,8
 40439ec:	ac400007 	ldb	r17,0(r21)
 40439f0:	003ebc06 	br	40434e4 <__flash_rwdata_start+0xffff277c>
 40439f4:	8025883a 	mov	r18,r16
 40439f8:	dc002903 	ldbu	r16,164(sp)
 40439fc:	e011883a 	mov	r8,fp
 4043a00:	84003fcc 	andi	r16,r16,255
 4043a04:	8007001e 	bne	r16,zero,4045608 <___vfprintf_internal_r+0x22ac>
 4043a08:	94800414 	ori	r18,r18,16
 4043a0c:	9080080c 	andi	r2,r18,32
 4043a10:	1002fa26 	beq	r2,zero,40445fc <___vfprintf_internal_r+0x12a0>
 4043a14:	d9002e17 	ldw	r4,184(sp)
 4043a18:	d9402a17 	ldw	r5,168(sp)
 4043a1c:	d8002785 	stb	zero,158(sp)
 4043a20:	20800204 	addi	r2,r4,8
 4043a24:	24c00017 	ldw	r19,0(r4)
 4043a28:	25800117 	ldw	r22,4(r4)
 4043a2c:	2804b116 	blt	r5,zero,4044cf4 <___vfprintf_internal_r+0x1998>
 4043a30:	013fdfc4 	movi	r4,-129
 4043a34:	9d86b03a 	or	r3,r19,r22
 4043a38:	d8802e15 	stw	r2,184(sp)
 4043a3c:	9124703a 	and	r18,r18,r4
 4043a40:	1802fb1e 	bne	r3,zero,4044630 <___vfprintf_internal_r+0x12d4>
 4043a44:	d8c02a17 	ldw	r3,168(sp)
 4043a48:	0039883a 	mov	fp,zero
 4043a4c:	1805e526 	beq	r3,zero,40451e4 <___vfprintf_internal_r+0x1e88>
 4043a50:	0027883a 	mov	r19,zero
 4043a54:	002d883a 	mov	r22,zero
 4043a58:	dc001e04 	addi	r16,sp,120
 4043a5c:	9806d0fa 	srli	r3,r19,3
 4043a60:	b008977a 	slli	r4,r22,29
 4043a64:	b02cd0fa 	srli	r22,r22,3
 4043a68:	9cc001cc 	andi	r19,r19,7
 4043a6c:	98800c04 	addi	r2,r19,48
 4043a70:	843fffc4 	addi	r16,r16,-1
 4043a74:	20e6b03a 	or	r19,r4,r3
 4043a78:	80800005 	stb	r2,0(r16)
 4043a7c:	9d86b03a 	or	r3,r19,r22
 4043a80:	183ff61e 	bne	r3,zero,4043a5c <__flash_rwdata_start+0xffff2cf4>
 4043a84:	90c0004c 	andi	r3,r18,1
 4043a88:	18014126 	beq	r3,zero,4043f90 <___vfprintf_internal_r+0xc34>
 4043a8c:	10803fcc 	andi	r2,r2,255
 4043a90:	1080201c 	xori	r2,r2,128
 4043a94:	10bfe004 	addi	r2,r2,-128
 4043a98:	00c00c04 	movi	r3,48
 4043a9c:	10c13c26 	beq	r2,r3,4043f90 <___vfprintf_internal_r+0xc34>
 4043aa0:	80ffffc5 	stb	r3,-1(r16)
 4043aa4:	d8c02817 	ldw	r3,160(sp)
 4043aa8:	80bfffc4 	addi	r2,r16,-1
 4043aac:	1021883a 	mov	r16,r2
 4043ab0:	1887c83a 	sub	r3,r3,r2
 4043ab4:	d8c02b15 	stw	r3,172(sp)
 4043ab8:	d8802b17 	ldw	r2,172(sp)
 4043abc:	d9002a17 	ldw	r4,168(sp)
 4043ac0:	1100010e 	bge	r2,r4,4043ac8 <___vfprintf_internal_r+0x76c>
 4043ac4:	2005883a 	mov	r2,r4
 4043ac8:	d8802915 	stw	r2,164(sp)
 4043acc:	d8003215 	stw	zero,200(sp)
 4043ad0:	e7003fcc 	andi	fp,fp,255
 4043ad4:	e700201c 	xori	fp,fp,128
 4043ad8:	e73fe004 	addi	fp,fp,-128
 4043adc:	e0000326 	beq	fp,zero,4043aec <___vfprintf_internal_r+0x790>
 4043ae0:	d8c02917 	ldw	r3,164(sp)
 4043ae4:	18c00044 	addi	r3,r3,1
 4043ae8:	d8c02915 	stw	r3,164(sp)
 4043aec:	90c0008c 	andi	r3,r18,2
 4043af0:	d8c02c15 	stw	r3,176(sp)
 4043af4:	18000326 	beq	r3,zero,4043b04 <___vfprintf_internal_r+0x7a8>
 4043af8:	d8c02917 	ldw	r3,164(sp)
 4043afc:	18c00084 	addi	r3,r3,2
 4043b00:	d8c02915 	stw	r3,164(sp)
 4043b04:	90c0210c 	andi	r3,r18,132
 4043b08:	d8c03015 	stw	r3,192(sp)
 4043b0c:	1801c51e 	bne	r3,zero,4044224 <___vfprintf_internal_r+0xec8>
 4043b10:	d9003117 	ldw	r4,196(sp)
 4043b14:	d8c02917 	ldw	r3,164(sp)
 4043b18:	20e7c83a 	sub	r19,r4,r3
 4043b1c:	04c1c10e 	bge	zero,r19,4044224 <___vfprintf_internal_r+0xec8>
 4043b20:	02400404 	movi	r9,16
 4043b24:	d8c02017 	ldw	r3,128(sp)
 4043b28:	d8801f17 	ldw	r2,124(sp)
 4043b2c:	4cc52f0e 	bge	r9,r19,4044fec <___vfprintf_internal_r+0x1c90>
 4043b30:	01400034 	movhi	r5,0
 4043b34:	29407384 	addi	r5,r5,462
 4043b38:	dc403b15 	stw	r17,236(sp)
 4043b3c:	d9403515 	stw	r5,212(sp)
 4043b40:	9823883a 	mov	r17,r19
 4043b44:	482d883a 	mov	r22,r9
 4043b48:	9027883a 	mov	r19,r18
 4043b4c:	070001c4 	movi	fp,7
 4043b50:	8025883a 	mov	r18,r16
 4043b54:	dc002d17 	ldw	r16,180(sp)
 4043b58:	00000306 	br	4043b68 <___vfprintf_internal_r+0x80c>
 4043b5c:	8c7ffc04 	addi	r17,r17,-16
 4043b60:	42000204 	addi	r8,r8,8
 4043b64:	b440130e 	bge	r22,r17,4043bb4 <___vfprintf_internal_r+0x858>
 4043b68:	01000034 	movhi	r4,0
 4043b6c:	18c00404 	addi	r3,r3,16
 4043b70:	10800044 	addi	r2,r2,1
 4043b74:	21007384 	addi	r4,r4,462
 4043b78:	41000015 	stw	r4,0(r8)
 4043b7c:	45800115 	stw	r22,4(r8)
 4043b80:	d8c02015 	stw	r3,128(sp)
 4043b84:	d8801f15 	stw	r2,124(sp)
 4043b88:	e0bff40e 	bge	fp,r2,4043b5c <__flash_rwdata_start+0xffff2df4>
 4043b8c:	d9801e04 	addi	r6,sp,120
 4043b90:	b80b883a 	mov	r5,r23
 4043b94:	8009883a 	mov	r4,r16
 4043b98:	404a04c0 	call	404a04c <__sprint_r>
 4043b9c:	103ef31e 	bne	r2,zero,404376c <__flash_rwdata_start+0xffff2a04>
 4043ba0:	8c7ffc04 	addi	r17,r17,-16
 4043ba4:	d8c02017 	ldw	r3,128(sp)
 4043ba8:	d8801f17 	ldw	r2,124(sp)
 4043bac:	da000404 	addi	r8,sp,16
 4043bb0:	b47fed16 	blt	r22,r17,4043b68 <__flash_rwdata_start+0xffff2e00>
 4043bb4:	9021883a 	mov	r16,r18
 4043bb8:	9825883a 	mov	r18,r19
 4043bbc:	8827883a 	mov	r19,r17
 4043bc0:	dc403b17 	ldw	r17,236(sp)
 4043bc4:	d9403517 	ldw	r5,212(sp)
 4043bc8:	98c7883a 	add	r3,r19,r3
 4043bcc:	10800044 	addi	r2,r2,1
 4043bd0:	41400015 	stw	r5,0(r8)
 4043bd4:	44c00115 	stw	r19,4(r8)
 4043bd8:	d8c02015 	stw	r3,128(sp)
 4043bdc:	d8801f15 	stw	r2,124(sp)
 4043be0:	010001c4 	movi	r4,7
 4043be4:	2082c516 	blt	r4,r2,40446fc <___vfprintf_internal_r+0x13a0>
 4043be8:	df002787 	ldb	fp,158(sp)
 4043bec:	42000204 	addi	r8,r8,8
 4043bf0:	e0000c26 	beq	fp,zero,4043c24 <___vfprintf_internal_r+0x8c8>
 4043bf4:	d8801f17 	ldw	r2,124(sp)
 4043bf8:	d9002784 	addi	r4,sp,158
 4043bfc:	18c00044 	addi	r3,r3,1
 4043c00:	10800044 	addi	r2,r2,1
 4043c04:	41000015 	stw	r4,0(r8)
 4043c08:	01000044 	movi	r4,1
 4043c0c:	41000115 	stw	r4,4(r8)
 4043c10:	d8c02015 	stw	r3,128(sp)
 4043c14:	d8801f15 	stw	r2,124(sp)
 4043c18:	010001c4 	movi	r4,7
 4043c1c:	20825e16 	blt	r4,r2,4044598 <___vfprintf_internal_r+0x123c>
 4043c20:	42000204 	addi	r8,r8,8
 4043c24:	d8802c17 	ldw	r2,176(sp)
 4043c28:	10000c26 	beq	r2,zero,4043c5c <___vfprintf_internal_r+0x900>
 4043c2c:	d8801f17 	ldw	r2,124(sp)
 4043c30:	d9002704 	addi	r4,sp,156
 4043c34:	18c00084 	addi	r3,r3,2
 4043c38:	10800044 	addi	r2,r2,1
 4043c3c:	41000015 	stw	r4,0(r8)
 4043c40:	01000084 	movi	r4,2
 4043c44:	41000115 	stw	r4,4(r8)
 4043c48:	d8c02015 	stw	r3,128(sp)
 4043c4c:	d8801f15 	stw	r2,124(sp)
 4043c50:	010001c4 	movi	r4,7
 4043c54:	20825816 	blt	r4,r2,40445b8 <___vfprintf_internal_r+0x125c>
 4043c58:	42000204 	addi	r8,r8,8
 4043c5c:	d9003017 	ldw	r4,192(sp)
 4043c60:	00802004 	movi	r2,128
 4043c64:	2081bb26 	beq	r4,r2,4044354 <___vfprintf_internal_r+0xff8>
 4043c68:	d9402a17 	ldw	r5,168(sp)
 4043c6c:	d8802b17 	ldw	r2,172(sp)
 4043c70:	28adc83a 	sub	r22,r5,r2
 4043c74:	0580310e 	bge	zero,r22,4043d3c <___vfprintf_internal_r+0x9e0>
 4043c78:	07000404 	movi	fp,16
 4043c7c:	d8801f17 	ldw	r2,124(sp)
 4043c80:	e584360e 	bge	fp,r22,4044d5c <___vfprintf_internal_r+0x1a00>
 4043c84:	01400034 	movhi	r5,0
 4043c88:	29406f84 	addi	r5,r5,446
 4043c8c:	dc402a15 	stw	r17,168(sp)
 4043c90:	d9402c15 	stw	r5,176(sp)
 4043c94:	b023883a 	mov	r17,r22
 4043c98:	04c001c4 	movi	r19,7
 4043c9c:	a82d883a 	mov	r22,r21
 4043ca0:	902b883a 	mov	r21,r18
 4043ca4:	8025883a 	mov	r18,r16
 4043ca8:	dc002d17 	ldw	r16,180(sp)
 4043cac:	00000306 	br	4043cbc <___vfprintf_internal_r+0x960>
 4043cb0:	8c7ffc04 	addi	r17,r17,-16
 4043cb4:	42000204 	addi	r8,r8,8
 4043cb8:	e440110e 	bge	fp,r17,4043d00 <___vfprintf_internal_r+0x9a4>
 4043cbc:	18c00404 	addi	r3,r3,16
 4043cc0:	10800044 	addi	r2,r2,1
 4043cc4:	45000015 	stw	r20,0(r8)
 4043cc8:	47000115 	stw	fp,4(r8)
 4043ccc:	d8c02015 	stw	r3,128(sp)
 4043cd0:	d8801f15 	stw	r2,124(sp)
 4043cd4:	98bff60e 	bge	r19,r2,4043cb0 <__flash_rwdata_start+0xffff2f48>
 4043cd8:	d9801e04 	addi	r6,sp,120
 4043cdc:	b80b883a 	mov	r5,r23
 4043ce0:	8009883a 	mov	r4,r16
 4043ce4:	404a04c0 	call	404a04c <__sprint_r>
 4043ce8:	103ea01e 	bne	r2,zero,404376c <__flash_rwdata_start+0xffff2a04>
 4043cec:	8c7ffc04 	addi	r17,r17,-16
 4043cf0:	d8c02017 	ldw	r3,128(sp)
 4043cf4:	d8801f17 	ldw	r2,124(sp)
 4043cf8:	da000404 	addi	r8,sp,16
 4043cfc:	e47fef16 	blt	fp,r17,4043cbc <__flash_rwdata_start+0xffff2f54>
 4043d00:	9021883a 	mov	r16,r18
 4043d04:	a825883a 	mov	r18,r21
 4043d08:	b02b883a 	mov	r21,r22
 4043d0c:	882d883a 	mov	r22,r17
 4043d10:	dc402a17 	ldw	r17,168(sp)
 4043d14:	d9002c17 	ldw	r4,176(sp)
 4043d18:	1d87883a 	add	r3,r3,r22
 4043d1c:	10800044 	addi	r2,r2,1
 4043d20:	41000015 	stw	r4,0(r8)
 4043d24:	45800115 	stw	r22,4(r8)
 4043d28:	d8c02015 	stw	r3,128(sp)
 4043d2c:	d8801f15 	stw	r2,124(sp)
 4043d30:	010001c4 	movi	r4,7
 4043d34:	20821016 	blt	r4,r2,4044578 <___vfprintf_internal_r+0x121c>
 4043d38:	42000204 	addi	r8,r8,8
 4043d3c:	9080400c 	andi	r2,r18,256
 4043d40:	10013a1e 	bne	r2,zero,404422c <___vfprintf_internal_r+0xed0>
 4043d44:	d9402b17 	ldw	r5,172(sp)
 4043d48:	d8801f17 	ldw	r2,124(sp)
 4043d4c:	44000015 	stw	r16,0(r8)
 4043d50:	1947883a 	add	r3,r3,r5
 4043d54:	10800044 	addi	r2,r2,1
 4043d58:	41400115 	stw	r5,4(r8)
 4043d5c:	d8c02015 	stw	r3,128(sp)
 4043d60:	d8801f15 	stw	r2,124(sp)
 4043d64:	010001c4 	movi	r4,7
 4043d68:	2081f516 	blt	r4,r2,4044540 <___vfprintf_internal_r+0x11e4>
 4043d6c:	42000204 	addi	r8,r8,8
 4043d70:	9480010c 	andi	r18,r18,4
 4043d74:	90003226 	beq	r18,zero,4043e40 <___vfprintf_internal_r+0xae4>
 4043d78:	d9403117 	ldw	r5,196(sp)
 4043d7c:	d8802917 	ldw	r2,164(sp)
 4043d80:	28a1c83a 	sub	r16,r5,r2
 4043d84:	04002e0e 	bge	zero,r16,4043e40 <___vfprintf_internal_r+0xae4>
 4043d88:	04400404 	movi	r17,16
 4043d8c:	d8801f17 	ldw	r2,124(sp)
 4043d90:	8c04c40e 	bge	r17,r16,40450a4 <___vfprintf_internal_r+0x1d48>
 4043d94:	01400034 	movhi	r5,0
 4043d98:	29407384 	addi	r5,r5,462
 4043d9c:	d9403515 	stw	r5,212(sp)
 4043da0:	048001c4 	movi	r18,7
 4043da4:	dcc02d17 	ldw	r19,180(sp)
 4043da8:	00000306 	br	4043db8 <___vfprintf_internal_r+0xa5c>
 4043dac:	843ffc04 	addi	r16,r16,-16
 4043db0:	42000204 	addi	r8,r8,8
 4043db4:	8c00130e 	bge	r17,r16,4043e04 <___vfprintf_internal_r+0xaa8>
 4043db8:	01000034 	movhi	r4,0
 4043dbc:	18c00404 	addi	r3,r3,16
 4043dc0:	10800044 	addi	r2,r2,1
 4043dc4:	21007384 	addi	r4,r4,462
 4043dc8:	41000015 	stw	r4,0(r8)
 4043dcc:	44400115 	stw	r17,4(r8)
 4043dd0:	d8c02015 	stw	r3,128(sp)
 4043dd4:	d8801f15 	stw	r2,124(sp)
 4043dd8:	90bff40e 	bge	r18,r2,4043dac <__flash_rwdata_start+0xffff3044>
 4043ddc:	d9801e04 	addi	r6,sp,120
 4043de0:	b80b883a 	mov	r5,r23
 4043de4:	9809883a 	mov	r4,r19
 4043de8:	404a04c0 	call	404a04c <__sprint_r>
 4043dec:	103e5f1e 	bne	r2,zero,404376c <__flash_rwdata_start+0xffff2a04>
 4043df0:	843ffc04 	addi	r16,r16,-16
 4043df4:	d8c02017 	ldw	r3,128(sp)
 4043df8:	d8801f17 	ldw	r2,124(sp)
 4043dfc:	da000404 	addi	r8,sp,16
 4043e00:	8c3fed16 	blt	r17,r16,4043db8 <__flash_rwdata_start+0xffff3050>
 4043e04:	d9403517 	ldw	r5,212(sp)
 4043e08:	1c07883a 	add	r3,r3,r16
 4043e0c:	10800044 	addi	r2,r2,1
 4043e10:	41400015 	stw	r5,0(r8)
 4043e14:	44000115 	stw	r16,4(r8)
 4043e18:	d8c02015 	stw	r3,128(sp)
 4043e1c:	d8801f15 	stw	r2,124(sp)
 4043e20:	010001c4 	movi	r4,7
 4043e24:	2080060e 	bge	r4,r2,4043e40 <___vfprintf_internal_r+0xae4>
 4043e28:	d9002d17 	ldw	r4,180(sp)
 4043e2c:	d9801e04 	addi	r6,sp,120
 4043e30:	b80b883a 	mov	r5,r23
 4043e34:	404a04c0 	call	404a04c <__sprint_r>
 4043e38:	103e4c1e 	bne	r2,zero,404376c <__flash_rwdata_start+0xffff2a04>
 4043e3c:	d8c02017 	ldw	r3,128(sp)
 4043e40:	d8803117 	ldw	r2,196(sp)
 4043e44:	d9002917 	ldw	r4,164(sp)
 4043e48:	1100010e 	bge	r2,r4,4043e50 <___vfprintf_internal_r+0xaf4>
 4043e4c:	2005883a 	mov	r2,r4
 4043e50:	d9402f17 	ldw	r5,188(sp)
 4043e54:	288b883a 	add	r5,r5,r2
 4043e58:	d9402f15 	stw	r5,188(sp)
 4043e5c:	1801c01e 	bne	r3,zero,4044560 <___vfprintf_internal_r+0x1204>
 4043e60:	a8800007 	ldb	r2,0(r21)
 4043e64:	d8001f15 	stw	zero,124(sp)
 4043e68:	da000404 	addi	r8,sp,16
 4043e6c:	103d751e 	bne	r2,zero,4043444 <__flash_rwdata_start+0xffff26dc>
 4043e70:	a823883a 	mov	r17,r21
 4043e74:	003d8b06 	br	40434a4 <__flash_rwdata_start+0xffff273c>
 4043e78:	8025883a 	mov	r18,r16
 4043e7c:	dc002903 	ldbu	r16,164(sp)
 4043e80:	e011883a 	mov	r8,fp
 4043e84:	84003fcc 	andi	r16,r16,255
 4043e88:	8005e51e 	bne	r16,zero,4045620 <___vfprintf_internal_r+0x22c4>
 4043e8c:	94800414 	ori	r18,r18,16
 4043e90:	9080080c 	andi	r2,r18,32
 4043e94:	10022b26 	beq	r2,zero,4044744 <___vfprintf_internal_r+0x13e8>
 4043e98:	d9002e17 	ldw	r4,184(sp)
 4043e9c:	d9402a17 	ldw	r5,168(sp)
 4043ea0:	d8002785 	stb	zero,158(sp)
 4043ea4:	20c00204 	addi	r3,r4,8
 4043ea8:	24c00017 	ldw	r19,0(r4)
 4043eac:	25800117 	ldw	r22,4(r4)
 4043eb0:	28042e16 	blt	r5,zero,4044f6c <___vfprintf_internal_r+0x1c10>
 4043eb4:	013fdfc4 	movi	r4,-129
 4043eb8:	9d84b03a 	or	r2,r19,r22
 4043ebc:	d8c02e15 	stw	r3,184(sp)
 4043ec0:	9124703a 	and	r18,r18,r4
 4043ec4:	0039883a 	mov	fp,zero
 4043ec8:	103e801e 	bne	r2,zero,40438cc <__flash_rwdata_start+0xffff2b64>
 4043ecc:	d9002a17 	ldw	r4,168(sp)
 4043ed0:	2002e01e 	bne	r4,zero,4044a54 <___vfprintf_internal_r+0x16f8>
 4043ed4:	d8002a15 	stw	zero,168(sp)
 4043ed8:	d8002b15 	stw	zero,172(sp)
 4043edc:	dc001e04 	addi	r16,sp,120
 4043ee0:	003ef506 	br	4043ab8 <__flash_rwdata_start+0xffff2d50>
 4043ee4:	8025883a 	mov	r18,r16
 4043ee8:	dc002903 	ldbu	r16,164(sp)
 4043eec:	e011883a 	mov	r8,fp
 4043ef0:	84003fcc 	andi	r16,r16,255
 4043ef4:	8005ba1e 	bne	r16,zero,40455e0 <___vfprintf_internal_r+0x2284>
 4043ef8:	01000034 	movhi	r4,0
 4043efc:	21006304 	addi	r4,r4,396
 4043f00:	d9003915 	stw	r4,228(sp)
 4043f04:	9080080c 	andi	r2,r18,32
 4043f08:	10006126 	beq	r2,zero,4044090 <___vfprintf_internal_r+0xd34>
 4043f0c:	d9402e17 	ldw	r5,184(sp)
 4043f10:	2cc00017 	ldw	r19,0(r5)
 4043f14:	2d800117 	ldw	r22,4(r5)
 4043f18:	29400204 	addi	r5,r5,8
 4043f1c:	d9402e15 	stw	r5,184(sp)
 4043f20:	9080004c 	andi	r2,r18,1
 4043f24:	1001ac26 	beq	r2,zero,40445d8 <___vfprintf_internal_r+0x127c>
 4043f28:	9d84b03a 	or	r2,r19,r22
 4043f2c:	10038526 	beq	r2,zero,4044d44 <___vfprintf_internal_r+0x19e8>
 4043f30:	d8c02a17 	ldw	r3,168(sp)
 4043f34:	00800c04 	movi	r2,48
 4043f38:	d8802705 	stb	r2,156(sp)
 4043f3c:	dc402745 	stb	r17,157(sp)
 4043f40:	d8002785 	stb	zero,158(sp)
 4043f44:	90800094 	ori	r2,r18,2
 4043f48:	18047916 	blt	r3,zero,4045130 <___vfprintf_internal_r+0x1dd4>
 4043f4c:	00bfdfc4 	movi	r2,-129
 4043f50:	90a4703a 	and	r18,r18,r2
 4043f54:	94800094 	ori	r18,r18,2
 4043f58:	0039883a 	mov	fp,zero
 4043f5c:	d9003917 	ldw	r4,228(sp)
 4043f60:	dc001e04 	addi	r16,sp,120
 4043f64:	988003cc 	andi	r2,r19,15
 4043f68:	b006973a 	slli	r3,r22,28
 4043f6c:	2085883a 	add	r2,r4,r2
 4043f70:	9826d13a 	srli	r19,r19,4
 4043f74:	10800003 	ldbu	r2,0(r2)
 4043f78:	b02cd13a 	srli	r22,r22,4
 4043f7c:	843fffc4 	addi	r16,r16,-1
 4043f80:	1ce6b03a 	or	r19,r3,r19
 4043f84:	80800005 	stb	r2,0(r16)
 4043f88:	9d84b03a 	or	r2,r19,r22
 4043f8c:	103ff51e 	bne	r2,zero,4043f64 <__flash_rwdata_start+0xffff31fc>
 4043f90:	d8c02817 	ldw	r3,160(sp)
 4043f94:	1c07c83a 	sub	r3,r3,r16
 4043f98:	d8c02b15 	stw	r3,172(sp)
 4043f9c:	003ec606 	br	4043ab8 <__flash_rwdata_start+0xffff2d50>
 4043fa0:	8025883a 	mov	r18,r16
 4043fa4:	dc002903 	ldbu	r16,164(sp)
 4043fa8:	e011883a 	mov	r8,fp
 4043fac:	84003fcc 	andi	r16,r16,255
 4043fb0:	803e9626 	beq	r16,zero,4043a0c <__flash_rwdata_start+0xffff2ca4>
 4043fb4:	d8c02b03 	ldbu	r3,172(sp)
 4043fb8:	d8c02785 	stb	r3,158(sp)
 4043fbc:	003e9306 	br	4043a0c <__flash_rwdata_start+0xffff2ca4>
 4043fc0:	00c00044 	movi	r3,1
 4043fc4:	d8c02905 	stb	r3,164(sp)
 4043fc8:	00c00ac4 	movi	r3,43
 4043fcc:	d8c02b05 	stb	r3,172(sp)
 4043fd0:	ac400007 	ldb	r17,0(r21)
 4043fd4:	003d4306 	br	40434e4 <__flash_rwdata_start+0xffff277c>
 4043fd8:	84000814 	ori	r16,r16,32
 4043fdc:	ac400007 	ldb	r17,0(r21)
 4043fe0:	003d4006 	br	40434e4 <__flash_rwdata_start+0xffff277c>
 4043fe4:	d8802e17 	ldw	r2,184(sp)
 4043fe8:	8025883a 	mov	r18,r16
 4043fec:	d8002785 	stb	zero,158(sp)
 4043ff0:	14000017 	ldw	r16,0(r2)
 4043ff4:	e011883a 	mov	r8,fp
 4043ff8:	14c00104 	addi	r19,r2,4
 4043ffc:	80042d26 	beq	r16,zero,40450b4 <___vfprintf_internal_r+0x1d58>
 4044000:	d8c02a17 	ldw	r3,168(sp)
 4044004:	1803e416 	blt	r3,zero,4044f98 <___vfprintf_internal_r+0x1c3c>
 4044008:	180d883a 	mov	r6,r3
 404400c:	000b883a 	mov	r5,zero
 4044010:	8009883a 	mov	r4,r16
 4044014:	df003d15 	stw	fp,244(sp)
 4044018:	40487cc0 	call	40487cc <memchr>
 404401c:	da003d17 	ldw	r8,244(sp)
 4044020:	10046826 	beq	r2,zero,40451c4 <___vfprintf_internal_r+0x1e68>
 4044024:	1405c83a 	sub	r2,r2,r16
 4044028:	d8802b15 	stw	r2,172(sp)
 404402c:	1003e016 	blt	r2,zero,4044fb0 <___vfprintf_internal_r+0x1c54>
 4044030:	df002783 	ldbu	fp,158(sp)
 4044034:	d8802915 	stw	r2,164(sp)
 4044038:	dcc02e15 	stw	r19,184(sp)
 404403c:	d8002a15 	stw	zero,168(sp)
 4044040:	d8003215 	stw	zero,200(sp)
 4044044:	003ea206 	br	4043ad0 <__flash_rwdata_start+0xffff2d68>
 4044048:	8025883a 	mov	r18,r16
 404404c:	dc002903 	ldbu	r16,164(sp)
 4044050:	e011883a 	mov	r8,fp
 4044054:	84003fcc 	andi	r16,r16,255
 4044058:	803f8d26 	beq	r16,zero,4043e90 <__flash_rwdata_start+0xffff3128>
 404405c:	d8c02b03 	ldbu	r3,172(sp)
 4044060:	d8c02785 	stb	r3,158(sp)
 4044064:	003f8a06 	br	4043e90 <__flash_rwdata_start+0xffff3128>
 4044068:	8025883a 	mov	r18,r16
 404406c:	dc002903 	ldbu	r16,164(sp)
 4044070:	e011883a 	mov	r8,fp
 4044074:	84003fcc 	andi	r16,r16,255
 4044078:	8005661e 	bne	r16,zero,4045614 <___vfprintf_internal_r+0x22b8>
 404407c:	01000034 	movhi	r4,0
 4044080:	21006804 	addi	r4,r4,416
 4044084:	d9003915 	stw	r4,228(sp)
 4044088:	9080080c 	andi	r2,r18,32
 404408c:	103f9f1e 	bne	r2,zero,4043f0c <__flash_rwdata_start+0xffff31a4>
 4044090:	9080040c 	andi	r2,r18,16
 4044094:	1002eb26 	beq	r2,zero,4044c44 <___vfprintf_internal_r+0x18e8>
 4044098:	d8802e17 	ldw	r2,184(sp)
 404409c:	002d883a 	mov	r22,zero
 40440a0:	14c00017 	ldw	r19,0(r2)
 40440a4:	10800104 	addi	r2,r2,4
 40440a8:	d8802e15 	stw	r2,184(sp)
 40440ac:	003f9c06 	br	4043f20 <__flash_rwdata_start+0xffff31b8>
 40440b0:	d8802b07 	ldb	r2,172(sp)
 40440b4:	1002e11e 	bne	r2,zero,4044c3c <___vfprintf_internal_r+0x18e0>
 40440b8:	00c00044 	movi	r3,1
 40440bc:	d8c02905 	stb	r3,164(sp)
 40440c0:	00c00804 	movi	r3,32
 40440c4:	d8c02b05 	stb	r3,172(sp)
 40440c8:	ac400007 	ldb	r17,0(r21)
 40440cc:	003d0506 	br	40434e4 <__flash_rwdata_start+0xffff277c>
 40440d0:	84000054 	ori	r16,r16,1
 40440d4:	ac400007 	ldb	r17,0(r21)
 40440d8:	003d0206 	br	40434e4 <__flash_rwdata_start+0xffff277c>
 40440dc:	8025883a 	mov	r18,r16
 40440e0:	dc002903 	ldbu	r16,164(sp)
 40440e4:	e011883a 	mov	r8,fp
 40440e8:	84003fcc 	andi	r16,r16,255
 40440ec:	803de726 	beq	r16,zero,404388c <__flash_rwdata_start+0xffff2b24>
 40440f0:	d8c02b03 	ldbu	r3,172(sp)
 40440f4:	d8c02785 	stb	r3,158(sp)
 40440f8:	003de406 	br	404388c <__flash_rwdata_start+0xffff2b24>
 40440fc:	84001014 	ori	r16,r16,64
 4044100:	ac400007 	ldb	r17,0(r21)
 4044104:	003cf706 	br	40434e4 <__flash_rwdata_start+0xffff277c>
 4044108:	ac400007 	ldb	r17,0(r21)
 404410c:	00801b04 	movi	r2,108
 4044110:	88838f26 	beq	r17,r2,4044f50 <___vfprintf_internal_r+0x1bf4>
 4044114:	84000414 	ori	r16,r16,16
 4044118:	003cf206 	br	40434e4 <__flash_rwdata_start+0xffff277c>
 404411c:	8025883a 	mov	r18,r16
 4044120:	dc002903 	ldbu	r16,164(sp)
 4044124:	e011883a 	mov	r8,fp
 4044128:	84003fcc 	andi	r16,r16,255
 404412c:	80053f1e 	bne	r16,zero,404562c <___vfprintf_internal_r+0x22d0>
 4044130:	9080080c 	andi	r2,r18,32
 4044134:	1002d226 	beq	r2,zero,4044c80 <___vfprintf_internal_r+0x1924>
 4044138:	d9002e17 	ldw	r4,184(sp)
 404413c:	d9402f17 	ldw	r5,188(sp)
 4044140:	20800017 	ldw	r2,0(r4)
 4044144:	2807d7fa 	srai	r3,r5,31
 4044148:	21000104 	addi	r4,r4,4
 404414c:	d9002e15 	stw	r4,184(sp)
 4044150:	11400015 	stw	r5,0(r2)
 4044154:	10c00115 	stw	r3,4(r2)
 4044158:	003cb806 	br	404343c <__flash_rwdata_start+0xffff26d4>
 404415c:	d8c02e17 	ldw	r3,184(sp)
 4044160:	d9002e17 	ldw	r4,184(sp)
 4044164:	8025883a 	mov	r18,r16
 4044168:	18800017 	ldw	r2,0(r3)
 404416c:	21000104 	addi	r4,r4,4
 4044170:	00c00044 	movi	r3,1
 4044174:	e011883a 	mov	r8,fp
 4044178:	d8c02915 	stw	r3,164(sp)
 404417c:	d8002785 	stb	zero,158(sp)
 4044180:	d8801405 	stb	r2,80(sp)
 4044184:	d9002e15 	stw	r4,184(sp)
 4044188:	d8c02b15 	stw	r3,172(sp)
 404418c:	d8002a15 	stw	zero,168(sp)
 4044190:	d8003215 	stw	zero,200(sp)
 4044194:	dc001404 	addi	r16,sp,80
 4044198:	0039883a 	mov	fp,zero
 404419c:	003e5306 	br	4043aec <__flash_rwdata_start+0xffff2d84>
 40441a0:	01000034 	movhi	r4,0
 40441a4:	21006804 	addi	r4,r4,416
 40441a8:	0039883a 	mov	fp,zero
 40441ac:	d9003915 	stw	r4,228(sp)
 40441b0:	04401e04 	movi	r17,120
 40441b4:	003f6906 	br	4043f5c <__flash_rwdata_start+0xffff31f4>
 40441b8:	8025883a 	mov	r18,r16
 40441bc:	dc002903 	ldbu	r16,164(sp)
 40441c0:	e011883a 	mov	r8,fp
 40441c4:	84003fcc 	andi	r16,r16,255
 40441c8:	8005081e 	bne	r16,zero,40455ec <___vfprintf_internal_r+0x2290>
 40441cc:	883d6126 	beq	r17,zero,4043754 <__flash_rwdata_start+0xffff29ec>
 40441d0:	00c00044 	movi	r3,1
 40441d4:	d8c02915 	stw	r3,164(sp)
 40441d8:	dc401405 	stb	r17,80(sp)
 40441dc:	d8002785 	stb	zero,158(sp)
 40441e0:	003fe906 	br	4044188 <__flash_rwdata_start+0xffff3420>
 40441e4:	01400034 	movhi	r5,0
 40441e8:	29406804 	addi	r5,r5,416
 40441ec:	d9403915 	stw	r5,228(sp)
 40441f0:	d8c02e15 	stw	r3,184(sp)
 40441f4:	1025883a 	mov	r18,r2
 40441f8:	04401e04 	movi	r17,120
 40441fc:	9d84b03a 	or	r2,r19,r22
 4044200:	1000fc1e 	bne	r2,zero,40445f4 <___vfprintf_internal_r+0x1298>
 4044204:	0039883a 	mov	fp,zero
 4044208:	00800084 	movi	r2,2
 404420c:	10803fcc 	andi	r2,r2,255
 4044210:	00c00044 	movi	r3,1
 4044214:	10c20f26 	beq	r2,r3,4044a54 <___vfprintf_internal_r+0x16f8>
 4044218:	00c00084 	movi	r3,2
 404421c:	10fd3326 	beq	r2,r3,40436ec <__flash_rwdata_start+0xffff2984>
 4044220:	003e0b06 	br	4043a50 <__flash_rwdata_start+0xffff2ce8>
 4044224:	d8c02017 	ldw	r3,128(sp)
 4044228:	003e7106 	br	4043bf0 <__flash_rwdata_start+0xffff2e88>
 404422c:	00801944 	movi	r2,101
 4044230:	14407e0e 	bge	r2,r17,404442c <___vfprintf_internal_r+0x10d0>
 4044234:	d9003617 	ldw	r4,216(sp)
 4044238:	d9403817 	ldw	r5,224(sp)
 404423c:	000d883a 	mov	r6,zero
 4044240:	000f883a 	mov	r7,zero
 4044244:	d8c03c15 	stw	r3,240(sp)
 4044248:	da003d15 	stw	r8,244(sp)
 404424c:	404df880 	call	404df88 <__eqdf2>
 4044250:	d8c03c17 	ldw	r3,240(sp)
 4044254:	da003d17 	ldw	r8,244(sp)
 4044258:	1000f71e 	bne	r2,zero,4044638 <___vfprintf_internal_r+0x12dc>
 404425c:	d8801f17 	ldw	r2,124(sp)
 4044260:	01000034 	movhi	r4,0
 4044264:	21006f04 	addi	r4,r4,444
 4044268:	18c00044 	addi	r3,r3,1
 404426c:	10800044 	addi	r2,r2,1
 4044270:	41000015 	stw	r4,0(r8)
 4044274:	01000044 	movi	r4,1
 4044278:	41000115 	stw	r4,4(r8)
 404427c:	d8c02015 	stw	r3,128(sp)
 4044280:	d8801f15 	stw	r2,124(sp)
 4044284:	010001c4 	movi	r4,7
 4044288:	2082b816 	blt	r4,r2,4044d6c <___vfprintf_internal_r+0x1a10>
 404428c:	42000204 	addi	r8,r8,8
 4044290:	d8802617 	ldw	r2,152(sp)
 4044294:	d9403317 	ldw	r5,204(sp)
 4044298:	11400216 	blt	r2,r5,40442a4 <___vfprintf_internal_r+0xf48>
 404429c:	9080004c 	andi	r2,r18,1
 40442a0:	103eb326 	beq	r2,zero,4043d70 <__flash_rwdata_start+0xffff3008>
 40442a4:	d8803717 	ldw	r2,220(sp)
 40442a8:	d9003417 	ldw	r4,208(sp)
 40442ac:	d9403717 	ldw	r5,220(sp)
 40442b0:	1887883a 	add	r3,r3,r2
 40442b4:	d8801f17 	ldw	r2,124(sp)
 40442b8:	41000015 	stw	r4,0(r8)
 40442bc:	41400115 	stw	r5,4(r8)
 40442c0:	10800044 	addi	r2,r2,1
 40442c4:	d8c02015 	stw	r3,128(sp)
 40442c8:	d8801f15 	stw	r2,124(sp)
 40442cc:	010001c4 	movi	r4,7
 40442d0:	20832916 	blt	r4,r2,4044f78 <___vfprintf_internal_r+0x1c1c>
 40442d4:	42000204 	addi	r8,r8,8
 40442d8:	d8803317 	ldw	r2,204(sp)
 40442dc:	143fffc4 	addi	r16,r2,-1
 40442e0:	043ea30e 	bge	zero,r16,4043d70 <__flash_rwdata_start+0xffff3008>
 40442e4:	04400404 	movi	r17,16
 40442e8:	d8801f17 	ldw	r2,124(sp)
 40442ec:	8c00880e 	bge	r17,r16,4044510 <___vfprintf_internal_r+0x11b4>
 40442f0:	01400034 	movhi	r5,0
 40442f4:	29406f84 	addi	r5,r5,446
 40442f8:	d9402c15 	stw	r5,176(sp)
 40442fc:	058001c4 	movi	r22,7
 4044300:	dcc02d17 	ldw	r19,180(sp)
 4044304:	00000306 	br	4044314 <___vfprintf_internal_r+0xfb8>
 4044308:	42000204 	addi	r8,r8,8
 404430c:	843ffc04 	addi	r16,r16,-16
 4044310:	8c00820e 	bge	r17,r16,404451c <___vfprintf_internal_r+0x11c0>
 4044314:	18c00404 	addi	r3,r3,16
 4044318:	10800044 	addi	r2,r2,1
 404431c:	45000015 	stw	r20,0(r8)
 4044320:	44400115 	stw	r17,4(r8)
 4044324:	d8c02015 	stw	r3,128(sp)
 4044328:	d8801f15 	stw	r2,124(sp)
 404432c:	b0bff60e 	bge	r22,r2,4044308 <__flash_rwdata_start+0xffff35a0>
 4044330:	d9801e04 	addi	r6,sp,120
 4044334:	b80b883a 	mov	r5,r23
 4044338:	9809883a 	mov	r4,r19
 404433c:	404a04c0 	call	404a04c <__sprint_r>
 4044340:	103d0a1e 	bne	r2,zero,404376c <__flash_rwdata_start+0xffff2a04>
 4044344:	d8c02017 	ldw	r3,128(sp)
 4044348:	d8801f17 	ldw	r2,124(sp)
 404434c:	da000404 	addi	r8,sp,16
 4044350:	003fee06 	br	404430c <__flash_rwdata_start+0xffff35a4>
 4044354:	d9403117 	ldw	r5,196(sp)
 4044358:	d8802917 	ldw	r2,164(sp)
 404435c:	28adc83a 	sub	r22,r5,r2
 4044360:	05be410e 	bge	zero,r22,4043c68 <__flash_rwdata_start+0xffff2f00>
 4044364:	07000404 	movi	fp,16
 4044368:	d8801f17 	ldw	r2,124(sp)
 404436c:	e5838f0e 	bge	fp,r22,40451ac <___vfprintf_internal_r+0x1e50>
 4044370:	01400034 	movhi	r5,0
 4044374:	29406f84 	addi	r5,r5,446
 4044378:	dc403015 	stw	r17,192(sp)
 404437c:	d9402c15 	stw	r5,176(sp)
 4044380:	b023883a 	mov	r17,r22
 4044384:	04c001c4 	movi	r19,7
 4044388:	a82d883a 	mov	r22,r21
 404438c:	902b883a 	mov	r21,r18
 4044390:	8025883a 	mov	r18,r16
 4044394:	dc002d17 	ldw	r16,180(sp)
 4044398:	00000306 	br	40443a8 <___vfprintf_internal_r+0x104c>
 404439c:	8c7ffc04 	addi	r17,r17,-16
 40443a0:	42000204 	addi	r8,r8,8
 40443a4:	e440110e 	bge	fp,r17,40443ec <___vfprintf_internal_r+0x1090>
 40443a8:	18c00404 	addi	r3,r3,16
 40443ac:	10800044 	addi	r2,r2,1
 40443b0:	45000015 	stw	r20,0(r8)
 40443b4:	47000115 	stw	fp,4(r8)
 40443b8:	d8c02015 	stw	r3,128(sp)
 40443bc:	d8801f15 	stw	r2,124(sp)
 40443c0:	98bff60e 	bge	r19,r2,404439c <__flash_rwdata_start+0xffff3634>
 40443c4:	d9801e04 	addi	r6,sp,120
 40443c8:	b80b883a 	mov	r5,r23
 40443cc:	8009883a 	mov	r4,r16
 40443d0:	404a04c0 	call	404a04c <__sprint_r>
 40443d4:	103ce51e 	bne	r2,zero,404376c <__flash_rwdata_start+0xffff2a04>
 40443d8:	8c7ffc04 	addi	r17,r17,-16
 40443dc:	d8c02017 	ldw	r3,128(sp)
 40443e0:	d8801f17 	ldw	r2,124(sp)
 40443e4:	da000404 	addi	r8,sp,16
 40443e8:	e47fef16 	blt	fp,r17,40443a8 <__flash_rwdata_start+0xffff3640>
 40443ec:	9021883a 	mov	r16,r18
 40443f0:	a825883a 	mov	r18,r21
 40443f4:	b02b883a 	mov	r21,r22
 40443f8:	882d883a 	mov	r22,r17
 40443fc:	dc403017 	ldw	r17,192(sp)
 4044400:	d9002c17 	ldw	r4,176(sp)
 4044404:	1d87883a 	add	r3,r3,r22
 4044408:	10800044 	addi	r2,r2,1
 404440c:	41000015 	stw	r4,0(r8)
 4044410:	45800115 	stw	r22,4(r8)
 4044414:	d8c02015 	stw	r3,128(sp)
 4044418:	d8801f15 	stw	r2,124(sp)
 404441c:	010001c4 	movi	r4,7
 4044420:	20818e16 	blt	r4,r2,4044a5c <___vfprintf_internal_r+0x1700>
 4044424:	42000204 	addi	r8,r8,8
 4044428:	003e0f06 	br	4043c68 <__flash_rwdata_start+0xffff2f00>
 404442c:	d9403317 	ldw	r5,204(sp)
 4044430:	00800044 	movi	r2,1
 4044434:	18c00044 	addi	r3,r3,1
 4044438:	1141530e 	bge	r2,r5,4044988 <___vfprintf_internal_r+0x162c>
 404443c:	dc401f17 	ldw	r17,124(sp)
 4044440:	00800044 	movi	r2,1
 4044444:	40800115 	stw	r2,4(r8)
 4044448:	8c400044 	addi	r17,r17,1
 404444c:	44000015 	stw	r16,0(r8)
 4044450:	d8c02015 	stw	r3,128(sp)
 4044454:	dc401f15 	stw	r17,124(sp)
 4044458:	008001c4 	movi	r2,7
 404445c:	14416b16 	blt	r2,r17,4044a0c <___vfprintf_internal_r+0x16b0>
 4044460:	42000204 	addi	r8,r8,8
 4044464:	d8803717 	ldw	r2,220(sp)
 4044468:	d9003417 	ldw	r4,208(sp)
 404446c:	8c400044 	addi	r17,r17,1
 4044470:	10c7883a 	add	r3,r2,r3
 4044474:	40800115 	stw	r2,4(r8)
 4044478:	41000015 	stw	r4,0(r8)
 404447c:	d8c02015 	stw	r3,128(sp)
 4044480:	dc401f15 	stw	r17,124(sp)
 4044484:	008001c4 	movi	r2,7
 4044488:	14416916 	blt	r2,r17,4044a30 <___vfprintf_internal_r+0x16d4>
 404448c:	45800204 	addi	r22,r8,8
 4044490:	d9003617 	ldw	r4,216(sp)
 4044494:	d9403817 	ldw	r5,224(sp)
 4044498:	000d883a 	mov	r6,zero
 404449c:	000f883a 	mov	r7,zero
 40444a0:	d8c03c15 	stw	r3,240(sp)
 40444a4:	404df880 	call	404df88 <__eqdf2>
 40444a8:	d8c03c17 	ldw	r3,240(sp)
 40444ac:	1000bc26 	beq	r2,zero,40447a0 <___vfprintf_internal_r+0x1444>
 40444b0:	d9403317 	ldw	r5,204(sp)
 40444b4:	84000044 	addi	r16,r16,1
 40444b8:	8c400044 	addi	r17,r17,1
 40444bc:	28bfffc4 	addi	r2,r5,-1
 40444c0:	1887883a 	add	r3,r3,r2
 40444c4:	b0800115 	stw	r2,4(r22)
 40444c8:	b4000015 	stw	r16,0(r22)
 40444cc:	d8c02015 	stw	r3,128(sp)
 40444d0:	dc401f15 	stw	r17,124(sp)
 40444d4:	008001c4 	movi	r2,7
 40444d8:	14414316 	blt	r2,r17,40449e8 <___vfprintf_internal_r+0x168c>
 40444dc:	b5800204 	addi	r22,r22,8
 40444e0:	d9003a17 	ldw	r4,232(sp)
 40444e4:	df0022c4 	addi	fp,sp,139
 40444e8:	8c400044 	addi	r17,r17,1
 40444ec:	20c7883a 	add	r3,r4,r3
 40444f0:	b7000015 	stw	fp,0(r22)
 40444f4:	b1000115 	stw	r4,4(r22)
 40444f8:	d8c02015 	stw	r3,128(sp)
 40444fc:	dc401f15 	stw	r17,124(sp)
 4044500:	008001c4 	movi	r2,7
 4044504:	14400e16 	blt	r2,r17,4044540 <___vfprintf_internal_r+0x11e4>
 4044508:	b2000204 	addi	r8,r22,8
 404450c:	003e1806 	br	4043d70 <__flash_rwdata_start+0xffff3008>
 4044510:	01000034 	movhi	r4,0
 4044514:	21006f84 	addi	r4,r4,446
 4044518:	d9002c15 	stw	r4,176(sp)
 404451c:	d9002c17 	ldw	r4,176(sp)
 4044520:	1c07883a 	add	r3,r3,r16
 4044524:	44000115 	stw	r16,4(r8)
 4044528:	41000015 	stw	r4,0(r8)
 404452c:	10800044 	addi	r2,r2,1
 4044530:	d8c02015 	stw	r3,128(sp)
 4044534:	d8801f15 	stw	r2,124(sp)
 4044538:	010001c4 	movi	r4,7
 404453c:	20be0b0e 	bge	r4,r2,4043d6c <__flash_rwdata_start+0xffff3004>
 4044540:	d9002d17 	ldw	r4,180(sp)
 4044544:	d9801e04 	addi	r6,sp,120
 4044548:	b80b883a 	mov	r5,r23
 404454c:	404a04c0 	call	404a04c <__sprint_r>
 4044550:	103c861e 	bne	r2,zero,404376c <__flash_rwdata_start+0xffff2a04>
 4044554:	d8c02017 	ldw	r3,128(sp)
 4044558:	da000404 	addi	r8,sp,16
 404455c:	003e0406 	br	4043d70 <__flash_rwdata_start+0xffff3008>
 4044560:	d9002d17 	ldw	r4,180(sp)
 4044564:	d9801e04 	addi	r6,sp,120
 4044568:	b80b883a 	mov	r5,r23
 404456c:	404a04c0 	call	404a04c <__sprint_r>
 4044570:	103e3b26 	beq	r2,zero,4043e60 <__flash_rwdata_start+0xffff30f8>
 4044574:	003c7d06 	br	404376c <__flash_rwdata_start+0xffff2a04>
 4044578:	d9002d17 	ldw	r4,180(sp)
 404457c:	d9801e04 	addi	r6,sp,120
 4044580:	b80b883a 	mov	r5,r23
 4044584:	404a04c0 	call	404a04c <__sprint_r>
 4044588:	103c781e 	bne	r2,zero,404376c <__flash_rwdata_start+0xffff2a04>
 404458c:	d8c02017 	ldw	r3,128(sp)
 4044590:	da000404 	addi	r8,sp,16
 4044594:	003de906 	br	4043d3c <__flash_rwdata_start+0xffff2fd4>
 4044598:	d9002d17 	ldw	r4,180(sp)
 404459c:	d9801e04 	addi	r6,sp,120
 40445a0:	b80b883a 	mov	r5,r23
 40445a4:	404a04c0 	call	404a04c <__sprint_r>
 40445a8:	103c701e 	bne	r2,zero,404376c <__flash_rwdata_start+0xffff2a04>
 40445ac:	d8c02017 	ldw	r3,128(sp)
 40445b0:	da000404 	addi	r8,sp,16
 40445b4:	003d9b06 	br	4043c24 <__flash_rwdata_start+0xffff2ebc>
 40445b8:	d9002d17 	ldw	r4,180(sp)
 40445bc:	d9801e04 	addi	r6,sp,120
 40445c0:	b80b883a 	mov	r5,r23
 40445c4:	404a04c0 	call	404a04c <__sprint_r>
 40445c8:	103c681e 	bne	r2,zero,404376c <__flash_rwdata_start+0xffff2a04>
 40445cc:	d8c02017 	ldw	r3,128(sp)
 40445d0:	da000404 	addi	r8,sp,16
 40445d4:	003da106 	br	4043c5c <__flash_rwdata_start+0xffff2ef4>
 40445d8:	d9402a17 	ldw	r5,168(sp)
 40445dc:	d8002785 	stb	zero,158(sp)
 40445e0:	283f0616 	blt	r5,zero,40441fc <__flash_rwdata_start+0xffff3494>
 40445e4:	00ffdfc4 	movi	r3,-129
 40445e8:	9d84b03a 	or	r2,r19,r22
 40445ec:	90e4703a 	and	r18,r18,r3
 40445f0:	103c3b26 	beq	r2,zero,40436e0 <__flash_rwdata_start+0xffff2978>
 40445f4:	0039883a 	mov	fp,zero
 40445f8:	003e5806 	br	4043f5c <__flash_rwdata_start+0xffff31f4>
 40445fc:	9080040c 	andi	r2,r18,16
 4044600:	1001b326 	beq	r2,zero,4044cd0 <___vfprintf_internal_r+0x1974>
 4044604:	d8c02e17 	ldw	r3,184(sp)
 4044608:	d9002a17 	ldw	r4,168(sp)
 404460c:	d8002785 	stb	zero,158(sp)
 4044610:	18800104 	addi	r2,r3,4
 4044614:	1cc00017 	ldw	r19,0(r3)
 4044618:	002d883a 	mov	r22,zero
 404461c:	2001b516 	blt	r4,zero,4044cf4 <___vfprintf_internal_r+0x1998>
 4044620:	00ffdfc4 	movi	r3,-129
 4044624:	d8802e15 	stw	r2,184(sp)
 4044628:	90e4703a 	and	r18,r18,r3
 404462c:	983d0526 	beq	r19,zero,4043a44 <__flash_rwdata_start+0xffff2cdc>
 4044630:	0039883a 	mov	fp,zero
 4044634:	003d0806 	br	4043a58 <__flash_rwdata_start+0xffff2cf0>
 4044638:	dc402617 	ldw	r17,152(sp)
 404463c:	0441d30e 	bge	zero,r17,4044d8c <___vfprintf_internal_r+0x1a30>
 4044640:	dc403217 	ldw	r17,200(sp)
 4044644:	d8803317 	ldw	r2,204(sp)
 4044648:	1440010e 	bge	r2,r17,4044650 <___vfprintf_internal_r+0x12f4>
 404464c:	1023883a 	mov	r17,r2
 4044650:	04400a0e 	bge	zero,r17,404467c <___vfprintf_internal_r+0x1320>
 4044654:	d8801f17 	ldw	r2,124(sp)
 4044658:	1c47883a 	add	r3,r3,r17
 404465c:	44000015 	stw	r16,0(r8)
 4044660:	10800044 	addi	r2,r2,1
 4044664:	44400115 	stw	r17,4(r8)
 4044668:	d8c02015 	stw	r3,128(sp)
 404466c:	d8801f15 	stw	r2,124(sp)
 4044670:	010001c4 	movi	r4,7
 4044674:	20826516 	blt	r4,r2,404500c <___vfprintf_internal_r+0x1cb0>
 4044678:	42000204 	addi	r8,r8,8
 404467c:	88026116 	blt	r17,zero,4045004 <___vfprintf_internal_r+0x1ca8>
 4044680:	d9003217 	ldw	r4,200(sp)
 4044684:	2463c83a 	sub	r17,r4,r17
 4044688:	04407b0e 	bge	zero,r17,4044878 <___vfprintf_internal_r+0x151c>
 404468c:	05800404 	movi	r22,16
 4044690:	d8801f17 	ldw	r2,124(sp)
 4044694:	b4419d0e 	bge	r22,r17,4044d0c <___vfprintf_internal_r+0x19b0>
 4044698:	01000034 	movhi	r4,0
 404469c:	21006f84 	addi	r4,r4,446
 40446a0:	d9002c15 	stw	r4,176(sp)
 40446a4:	070001c4 	movi	fp,7
 40446a8:	dcc02d17 	ldw	r19,180(sp)
 40446ac:	00000306 	br	40446bc <___vfprintf_internal_r+0x1360>
 40446b0:	42000204 	addi	r8,r8,8
 40446b4:	8c7ffc04 	addi	r17,r17,-16
 40446b8:	b441970e 	bge	r22,r17,4044d18 <___vfprintf_internal_r+0x19bc>
 40446bc:	18c00404 	addi	r3,r3,16
 40446c0:	10800044 	addi	r2,r2,1
 40446c4:	45000015 	stw	r20,0(r8)
 40446c8:	45800115 	stw	r22,4(r8)
 40446cc:	d8c02015 	stw	r3,128(sp)
 40446d0:	d8801f15 	stw	r2,124(sp)
 40446d4:	e0bff60e 	bge	fp,r2,40446b0 <__flash_rwdata_start+0xffff3948>
 40446d8:	d9801e04 	addi	r6,sp,120
 40446dc:	b80b883a 	mov	r5,r23
 40446e0:	9809883a 	mov	r4,r19
 40446e4:	404a04c0 	call	404a04c <__sprint_r>
 40446e8:	103c201e 	bne	r2,zero,404376c <__flash_rwdata_start+0xffff2a04>
 40446ec:	d8c02017 	ldw	r3,128(sp)
 40446f0:	d8801f17 	ldw	r2,124(sp)
 40446f4:	da000404 	addi	r8,sp,16
 40446f8:	003fee06 	br	40446b4 <__flash_rwdata_start+0xffff394c>
 40446fc:	d9002d17 	ldw	r4,180(sp)
 4044700:	d9801e04 	addi	r6,sp,120
 4044704:	b80b883a 	mov	r5,r23
 4044708:	404a04c0 	call	404a04c <__sprint_r>
 404470c:	103c171e 	bne	r2,zero,404376c <__flash_rwdata_start+0xffff2a04>
 4044710:	d8c02017 	ldw	r3,128(sp)
 4044714:	df002787 	ldb	fp,158(sp)
 4044718:	da000404 	addi	r8,sp,16
 404471c:	003d3406 	br	4043bf0 <__flash_rwdata_start+0xffff2e88>
 4044720:	9080040c 	andi	r2,r18,16
 4044724:	10016126 	beq	r2,zero,4044cac <___vfprintf_internal_r+0x1950>
 4044728:	d9402e17 	ldw	r5,184(sp)
 404472c:	2cc00017 	ldw	r19,0(r5)
 4044730:	29400104 	addi	r5,r5,4
 4044734:	d9402e15 	stw	r5,184(sp)
 4044738:	982dd7fa 	srai	r22,r19,31
 404473c:	b005883a 	mov	r2,r22
 4044740:	003c5a06 	br	40438ac <__flash_rwdata_start+0xffff2b44>
 4044744:	9080040c 	andi	r2,r18,16
 4044748:	10003526 	beq	r2,zero,4044820 <___vfprintf_internal_r+0x14c4>
 404474c:	d8c02e17 	ldw	r3,184(sp)
 4044750:	d9002a17 	ldw	r4,168(sp)
 4044754:	d8002785 	stb	zero,158(sp)
 4044758:	18800104 	addi	r2,r3,4
 404475c:	1cc00017 	ldw	r19,0(r3)
 4044760:	002d883a 	mov	r22,zero
 4044764:	20003716 	blt	r4,zero,4044844 <___vfprintf_internal_r+0x14e8>
 4044768:	00ffdfc4 	movi	r3,-129
 404476c:	d8802e15 	stw	r2,184(sp)
 4044770:	90e4703a 	and	r18,r18,r3
 4044774:	0039883a 	mov	fp,zero
 4044778:	983dd426 	beq	r19,zero,4043ecc <__flash_rwdata_start+0xffff3164>
 404477c:	00800244 	movi	r2,9
 4044780:	14fc5336 	bltu	r2,r19,40438d0 <__flash_rwdata_start+0xffff2b68>
 4044784:	d8c02817 	ldw	r3,160(sp)
 4044788:	dc001dc4 	addi	r16,sp,119
 404478c:	9cc00c04 	addi	r19,r19,48
 4044790:	1c07c83a 	sub	r3,r3,r16
 4044794:	dcc01dc5 	stb	r19,119(sp)
 4044798:	d8c02b15 	stw	r3,172(sp)
 404479c:	003cc606 	br	4043ab8 <__flash_rwdata_start+0xffff2d50>
 40447a0:	d8803317 	ldw	r2,204(sp)
 40447a4:	143fffc4 	addi	r16,r2,-1
 40447a8:	043f4d0e 	bge	zero,r16,40444e0 <__flash_rwdata_start+0xffff3778>
 40447ac:	07000404 	movi	fp,16
 40447b0:	e400810e 	bge	fp,r16,40449b8 <___vfprintf_internal_r+0x165c>
 40447b4:	01400034 	movhi	r5,0
 40447b8:	29406f84 	addi	r5,r5,446
 40447bc:	d9402c15 	stw	r5,176(sp)
 40447c0:	01c001c4 	movi	r7,7
 40447c4:	dcc02d17 	ldw	r19,180(sp)
 40447c8:	00000306 	br	40447d8 <___vfprintf_internal_r+0x147c>
 40447cc:	b5800204 	addi	r22,r22,8
 40447d0:	843ffc04 	addi	r16,r16,-16
 40447d4:	e4007b0e 	bge	fp,r16,40449c4 <___vfprintf_internal_r+0x1668>
 40447d8:	18c00404 	addi	r3,r3,16
 40447dc:	8c400044 	addi	r17,r17,1
 40447e0:	b5000015 	stw	r20,0(r22)
 40447e4:	b7000115 	stw	fp,4(r22)
 40447e8:	d8c02015 	stw	r3,128(sp)
 40447ec:	dc401f15 	stw	r17,124(sp)
 40447f0:	3c7ff60e 	bge	r7,r17,40447cc <__flash_rwdata_start+0xffff3a64>
 40447f4:	d9801e04 	addi	r6,sp,120
 40447f8:	b80b883a 	mov	r5,r23
 40447fc:	9809883a 	mov	r4,r19
 4044800:	d9c03c15 	stw	r7,240(sp)
 4044804:	404a04c0 	call	404a04c <__sprint_r>
 4044808:	d9c03c17 	ldw	r7,240(sp)
 404480c:	103bd71e 	bne	r2,zero,404376c <__flash_rwdata_start+0xffff2a04>
 4044810:	d8c02017 	ldw	r3,128(sp)
 4044814:	dc401f17 	ldw	r17,124(sp)
 4044818:	dd800404 	addi	r22,sp,16
 404481c:	003fec06 	br	40447d0 <__flash_rwdata_start+0xffff3a68>
 4044820:	9080100c 	andi	r2,r18,64
 4044824:	d8002785 	stb	zero,158(sp)
 4044828:	10010e26 	beq	r2,zero,4044c64 <___vfprintf_internal_r+0x1908>
 404482c:	d9402e17 	ldw	r5,184(sp)
 4044830:	d8c02a17 	ldw	r3,168(sp)
 4044834:	002d883a 	mov	r22,zero
 4044838:	28800104 	addi	r2,r5,4
 404483c:	2cc0000b 	ldhu	r19,0(r5)
 4044840:	183fc90e 	bge	r3,zero,4044768 <__flash_rwdata_start+0xffff3a00>
 4044844:	d8802e15 	stw	r2,184(sp)
 4044848:	0039883a 	mov	fp,zero
 404484c:	9d84b03a 	or	r2,r19,r22
 4044850:	103c1e1e 	bne	r2,zero,40438cc <__flash_rwdata_start+0xffff2b64>
 4044854:	00800044 	movi	r2,1
 4044858:	003e6c06 	br	404420c <__flash_rwdata_start+0xffff34a4>
 404485c:	d9002d17 	ldw	r4,180(sp)
 4044860:	d9801e04 	addi	r6,sp,120
 4044864:	b80b883a 	mov	r5,r23
 4044868:	404a04c0 	call	404a04c <__sprint_r>
 404486c:	103bbf1e 	bne	r2,zero,404376c <__flash_rwdata_start+0xffff2a04>
 4044870:	d8c02017 	ldw	r3,128(sp)
 4044874:	da000404 	addi	r8,sp,16
 4044878:	d9003217 	ldw	r4,200(sp)
 404487c:	d8802617 	ldw	r2,152(sp)
 4044880:	d9403317 	ldw	r5,204(sp)
 4044884:	8123883a 	add	r17,r16,r4
 4044888:	11400216 	blt	r2,r5,4044894 <___vfprintf_internal_r+0x1538>
 404488c:	9100004c 	andi	r4,r18,1
 4044890:	20000d26 	beq	r4,zero,40448c8 <___vfprintf_internal_r+0x156c>
 4044894:	d9003717 	ldw	r4,220(sp)
 4044898:	d9403417 	ldw	r5,208(sp)
 404489c:	1907883a 	add	r3,r3,r4
 40448a0:	d9001f17 	ldw	r4,124(sp)
 40448a4:	41400015 	stw	r5,0(r8)
 40448a8:	d9403717 	ldw	r5,220(sp)
 40448ac:	21000044 	addi	r4,r4,1
 40448b0:	d8c02015 	stw	r3,128(sp)
 40448b4:	41400115 	stw	r5,4(r8)
 40448b8:	d9001f15 	stw	r4,124(sp)
 40448bc:	014001c4 	movi	r5,7
 40448c0:	2901e816 	blt	r5,r4,4045064 <___vfprintf_internal_r+0x1d08>
 40448c4:	42000204 	addi	r8,r8,8
 40448c8:	d9003317 	ldw	r4,204(sp)
 40448cc:	8121883a 	add	r16,r16,r4
 40448d0:	2085c83a 	sub	r2,r4,r2
 40448d4:	8461c83a 	sub	r16,r16,r17
 40448d8:	1400010e 	bge	r2,r16,40448e0 <___vfprintf_internal_r+0x1584>
 40448dc:	1021883a 	mov	r16,r2
 40448e0:	04000a0e 	bge	zero,r16,404490c <___vfprintf_internal_r+0x15b0>
 40448e4:	d9001f17 	ldw	r4,124(sp)
 40448e8:	1c07883a 	add	r3,r3,r16
 40448ec:	44400015 	stw	r17,0(r8)
 40448f0:	21000044 	addi	r4,r4,1
 40448f4:	44000115 	stw	r16,4(r8)
 40448f8:	d8c02015 	stw	r3,128(sp)
 40448fc:	d9001f15 	stw	r4,124(sp)
 4044900:	014001c4 	movi	r5,7
 4044904:	2901fb16 	blt	r5,r4,40450f4 <___vfprintf_internal_r+0x1d98>
 4044908:	42000204 	addi	r8,r8,8
 404490c:	8001f716 	blt	r16,zero,40450ec <___vfprintf_internal_r+0x1d90>
 4044910:	1421c83a 	sub	r16,r2,r16
 4044914:	043d160e 	bge	zero,r16,4043d70 <__flash_rwdata_start+0xffff3008>
 4044918:	04400404 	movi	r17,16
 404491c:	d8801f17 	ldw	r2,124(sp)
 4044920:	8c3efb0e 	bge	r17,r16,4044510 <__flash_rwdata_start+0xffff37a8>
 4044924:	01400034 	movhi	r5,0
 4044928:	29406f84 	addi	r5,r5,446
 404492c:	d9402c15 	stw	r5,176(sp)
 4044930:	058001c4 	movi	r22,7
 4044934:	dcc02d17 	ldw	r19,180(sp)
 4044938:	00000306 	br	4044948 <___vfprintf_internal_r+0x15ec>
 404493c:	42000204 	addi	r8,r8,8
 4044940:	843ffc04 	addi	r16,r16,-16
 4044944:	8c3ef50e 	bge	r17,r16,404451c <__flash_rwdata_start+0xffff37b4>
 4044948:	18c00404 	addi	r3,r3,16
 404494c:	10800044 	addi	r2,r2,1
 4044950:	45000015 	stw	r20,0(r8)
 4044954:	44400115 	stw	r17,4(r8)
 4044958:	d8c02015 	stw	r3,128(sp)
 404495c:	d8801f15 	stw	r2,124(sp)
 4044960:	b0bff60e 	bge	r22,r2,404493c <__flash_rwdata_start+0xffff3bd4>
 4044964:	d9801e04 	addi	r6,sp,120
 4044968:	b80b883a 	mov	r5,r23
 404496c:	9809883a 	mov	r4,r19
 4044970:	404a04c0 	call	404a04c <__sprint_r>
 4044974:	103b7d1e 	bne	r2,zero,404376c <__flash_rwdata_start+0xffff2a04>
 4044978:	d8c02017 	ldw	r3,128(sp)
 404497c:	d8801f17 	ldw	r2,124(sp)
 4044980:	da000404 	addi	r8,sp,16
 4044984:	003fee06 	br	4044940 <__flash_rwdata_start+0xffff3bd8>
 4044988:	9088703a 	and	r4,r18,r2
 404498c:	203eab1e 	bne	r4,zero,404443c <__flash_rwdata_start+0xffff36d4>
 4044990:	dc401f17 	ldw	r17,124(sp)
 4044994:	40800115 	stw	r2,4(r8)
 4044998:	44000015 	stw	r16,0(r8)
 404499c:	8c400044 	addi	r17,r17,1
 40449a0:	d8c02015 	stw	r3,128(sp)
 40449a4:	dc401f15 	stw	r17,124(sp)
 40449a8:	008001c4 	movi	r2,7
 40449ac:	14400e16 	blt	r2,r17,40449e8 <___vfprintf_internal_r+0x168c>
 40449b0:	45800204 	addi	r22,r8,8
 40449b4:	003eca06 	br	40444e0 <__flash_rwdata_start+0xffff3778>
 40449b8:	01000034 	movhi	r4,0
 40449bc:	21006f84 	addi	r4,r4,446
 40449c0:	d9002c15 	stw	r4,176(sp)
 40449c4:	d8802c17 	ldw	r2,176(sp)
 40449c8:	1c07883a 	add	r3,r3,r16
 40449cc:	8c400044 	addi	r17,r17,1
 40449d0:	b0800015 	stw	r2,0(r22)
 40449d4:	b4000115 	stw	r16,4(r22)
 40449d8:	d8c02015 	stw	r3,128(sp)
 40449dc:	dc401f15 	stw	r17,124(sp)
 40449e0:	008001c4 	movi	r2,7
 40449e4:	147ebd0e 	bge	r2,r17,40444dc <__flash_rwdata_start+0xffff3774>
 40449e8:	d9002d17 	ldw	r4,180(sp)
 40449ec:	d9801e04 	addi	r6,sp,120
 40449f0:	b80b883a 	mov	r5,r23
 40449f4:	404a04c0 	call	404a04c <__sprint_r>
 40449f8:	103b5c1e 	bne	r2,zero,404376c <__flash_rwdata_start+0xffff2a04>
 40449fc:	d8c02017 	ldw	r3,128(sp)
 4044a00:	dc401f17 	ldw	r17,124(sp)
 4044a04:	dd800404 	addi	r22,sp,16
 4044a08:	003eb506 	br	40444e0 <__flash_rwdata_start+0xffff3778>
 4044a0c:	d9002d17 	ldw	r4,180(sp)
 4044a10:	d9801e04 	addi	r6,sp,120
 4044a14:	b80b883a 	mov	r5,r23
 4044a18:	404a04c0 	call	404a04c <__sprint_r>
 4044a1c:	103b531e 	bne	r2,zero,404376c <__flash_rwdata_start+0xffff2a04>
 4044a20:	d8c02017 	ldw	r3,128(sp)
 4044a24:	dc401f17 	ldw	r17,124(sp)
 4044a28:	da000404 	addi	r8,sp,16
 4044a2c:	003e8d06 	br	4044464 <__flash_rwdata_start+0xffff36fc>
 4044a30:	d9002d17 	ldw	r4,180(sp)
 4044a34:	d9801e04 	addi	r6,sp,120
 4044a38:	b80b883a 	mov	r5,r23
 4044a3c:	404a04c0 	call	404a04c <__sprint_r>
 4044a40:	103b4a1e 	bne	r2,zero,404376c <__flash_rwdata_start+0xffff2a04>
 4044a44:	d8c02017 	ldw	r3,128(sp)
 4044a48:	dc401f17 	ldw	r17,124(sp)
 4044a4c:	dd800404 	addi	r22,sp,16
 4044a50:	003e8f06 	br	4044490 <__flash_rwdata_start+0xffff3728>
 4044a54:	0027883a 	mov	r19,zero
 4044a58:	003f4a06 	br	4044784 <__flash_rwdata_start+0xffff3a1c>
 4044a5c:	d9002d17 	ldw	r4,180(sp)
 4044a60:	d9801e04 	addi	r6,sp,120
 4044a64:	b80b883a 	mov	r5,r23
 4044a68:	404a04c0 	call	404a04c <__sprint_r>
 4044a6c:	103b3f1e 	bne	r2,zero,404376c <__flash_rwdata_start+0xffff2a04>
 4044a70:	d8c02017 	ldw	r3,128(sp)
 4044a74:	da000404 	addi	r8,sp,16
 4044a78:	003c7b06 	br	4043c68 <__flash_rwdata_start+0xffff2f00>
 4044a7c:	d9402a17 	ldw	r5,168(sp)
 4044a80:	04e7c83a 	sub	r19,zero,r19
 4044a84:	07000b44 	movi	fp,45
 4044a88:	9804c03a 	cmpne	r2,r19,zero
 4044a8c:	05adc83a 	sub	r22,zero,r22
 4044a90:	df002785 	stb	fp,158(sp)
 4044a94:	b0adc83a 	sub	r22,r22,r2
 4044a98:	28017b16 	blt	r5,zero,4045088 <___vfprintf_internal_r+0x1d2c>
 4044a9c:	00bfdfc4 	movi	r2,-129
 4044aa0:	90a4703a 	and	r18,r18,r2
 4044aa4:	003b8906 	br	40438cc <__flash_rwdata_start+0xffff2b64>
 4044aa8:	d9003617 	ldw	r4,216(sp)
 4044aac:	d9403817 	ldw	r5,224(sp)
 4044ab0:	da003d15 	stw	r8,244(sp)
 4044ab4:	4049bd80 	call	4049bd8 <__fpclassifyd>
 4044ab8:	da003d17 	ldw	r8,244(sp)
 4044abc:	1000f026 	beq	r2,zero,4044e80 <___vfprintf_internal_r+0x1b24>
 4044ac0:	d9002a17 	ldw	r4,168(sp)
 4044ac4:	05bff7c4 	movi	r22,-33
 4044ac8:	00bfffc4 	movi	r2,-1
 4044acc:	8dac703a 	and	r22,r17,r22
 4044ad0:	20820026 	beq	r4,r2,40452d4 <___vfprintf_internal_r+0x1f78>
 4044ad4:	008011c4 	movi	r2,71
 4044ad8:	b081f726 	beq	r22,r2,40452b8 <___vfprintf_internal_r+0x1f5c>
 4044adc:	d9003817 	ldw	r4,224(sp)
 4044ae0:	90c04014 	ori	r3,r18,256
 4044ae4:	d8c02c15 	stw	r3,176(sp)
 4044ae8:	20021516 	blt	r4,zero,4045340 <___vfprintf_internal_r+0x1fe4>
 4044aec:	dcc03817 	ldw	r19,224(sp)
 4044af0:	d8002905 	stb	zero,164(sp)
 4044af4:	00801984 	movi	r2,102
 4044af8:	8881f926 	beq	r17,r2,40452e0 <___vfprintf_internal_r+0x1f84>
 4044afc:	00801184 	movi	r2,70
 4044b00:	88821c26 	beq	r17,r2,4045374 <___vfprintf_internal_r+0x2018>
 4044b04:	00801144 	movi	r2,69
 4044b08:	b081ef26 	beq	r22,r2,40452c8 <___vfprintf_internal_r+0x1f6c>
 4044b0c:	d8c02a17 	ldw	r3,168(sp)
 4044b10:	d8802104 	addi	r2,sp,132
 4044b14:	d8800315 	stw	r2,12(sp)
 4044b18:	d9403617 	ldw	r5,216(sp)
 4044b1c:	d8802504 	addi	r2,sp,148
 4044b20:	d9002d17 	ldw	r4,180(sp)
 4044b24:	d8800215 	stw	r2,8(sp)
 4044b28:	d8802604 	addi	r2,sp,152
 4044b2c:	d8c00015 	stw	r3,0(sp)
 4044b30:	d8800115 	stw	r2,4(sp)
 4044b34:	01c00084 	movi	r7,2
 4044b38:	980d883a 	mov	r6,r19
 4044b3c:	d8c03c15 	stw	r3,240(sp)
 4044b40:	da003d15 	stw	r8,244(sp)
 4044b44:	4045a8c0 	call	4045a8c <_dtoa_r>
 4044b48:	1021883a 	mov	r16,r2
 4044b4c:	008019c4 	movi	r2,103
 4044b50:	d8c03c17 	ldw	r3,240(sp)
 4044b54:	da003d17 	ldw	r8,244(sp)
 4044b58:	88817126 	beq	r17,r2,4045120 <___vfprintf_internal_r+0x1dc4>
 4044b5c:	008011c4 	movi	r2,71
 4044b60:	88829126 	beq	r17,r2,40455a8 <___vfprintf_internal_r+0x224c>
 4044b64:	80f9883a 	add	fp,r16,r3
 4044b68:	d9003617 	ldw	r4,216(sp)
 4044b6c:	000d883a 	mov	r6,zero
 4044b70:	000f883a 	mov	r7,zero
 4044b74:	980b883a 	mov	r5,r19
 4044b78:	da003d15 	stw	r8,244(sp)
 4044b7c:	404df880 	call	404df88 <__eqdf2>
 4044b80:	da003d17 	ldw	r8,244(sp)
 4044b84:	10018d26 	beq	r2,zero,40451bc <___vfprintf_internal_r+0x1e60>
 4044b88:	d8802117 	ldw	r2,132(sp)
 4044b8c:	1700062e 	bgeu	r2,fp,4044ba8 <___vfprintf_internal_r+0x184c>
 4044b90:	01000c04 	movi	r4,48
 4044b94:	10c00044 	addi	r3,r2,1
 4044b98:	d8c02115 	stw	r3,132(sp)
 4044b9c:	11000005 	stb	r4,0(r2)
 4044ba0:	d8802117 	ldw	r2,132(sp)
 4044ba4:	173ffb36 	bltu	r2,fp,4044b94 <__flash_rwdata_start+0xffff3e2c>
 4044ba8:	1405c83a 	sub	r2,r2,r16
 4044bac:	d8803315 	stw	r2,204(sp)
 4044bb0:	008011c4 	movi	r2,71
 4044bb4:	b0817626 	beq	r22,r2,4045190 <___vfprintf_internal_r+0x1e34>
 4044bb8:	00801944 	movi	r2,101
 4044bbc:	1442800e 	bge	r2,r17,40455c0 <___vfprintf_internal_r+0x2264>
 4044bc0:	d8c02617 	ldw	r3,152(sp)
 4044bc4:	00801984 	movi	r2,102
 4044bc8:	d8c03215 	stw	r3,200(sp)
 4044bcc:	8881fe26 	beq	r17,r2,40453c8 <___vfprintf_internal_r+0x206c>
 4044bd0:	d8c03217 	ldw	r3,200(sp)
 4044bd4:	d9003317 	ldw	r4,204(sp)
 4044bd8:	1901dd16 	blt	r3,r4,4045350 <___vfprintf_internal_r+0x1ff4>
 4044bdc:	9480004c 	andi	r18,r18,1
 4044be0:	90022b1e 	bne	r18,zero,4045490 <___vfprintf_internal_r+0x2134>
 4044be4:	1805883a 	mov	r2,r3
 4044be8:	18028316 	blt	r3,zero,40455f8 <___vfprintf_internal_r+0x229c>
 4044bec:	d8c03217 	ldw	r3,200(sp)
 4044bf0:	044019c4 	movi	r17,103
 4044bf4:	d8c02b15 	stw	r3,172(sp)
 4044bf8:	df002907 	ldb	fp,164(sp)
 4044bfc:	e001531e 	bne	fp,zero,404514c <___vfprintf_internal_r+0x1df0>
 4044c00:	df002783 	ldbu	fp,158(sp)
 4044c04:	d8802915 	stw	r2,164(sp)
 4044c08:	dc802c17 	ldw	r18,176(sp)
 4044c0c:	d8002a15 	stw	zero,168(sp)
 4044c10:	003baf06 	br	4043ad0 <__flash_rwdata_start+0xffff2d68>
 4044c14:	d8c02e17 	ldw	r3,184(sp)
 4044c18:	d9002e17 	ldw	r4,184(sp)
 4044c1c:	d9402e17 	ldw	r5,184(sp)
 4044c20:	18c00017 	ldw	r3,0(r3)
 4044c24:	21000117 	ldw	r4,4(r4)
 4044c28:	29400204 	addi	r5,r5,8
 4044c2c:	d8c03615 	stw	r3,216(sp)
 4044c30:	d9003815 	stw	r4,224(sp)
 4044c34:	d9402e15 	stw	r5,184(sp)
 4044c38:	003b5006 	br	404397c <__flash_rwdata_start+0xffff2c14>
 4044c3c:	ac400007 	ldb	r17,0(r21)
 4044c40:	003a2806 	br	40434e4 <__flash_rwdata_start+0xffff277c>
 4044c44:	9080100c 	andi	r2,r18,64
 4044c48:	1000a826 	beq	r2,zero,4044eec <___vfprintf_internal_r+0x1b90>
 4044c4c:	d8c02e17 	ldw	r3,184(sp)
 4044c50:	002d883a 	mov	r22,zero
 4044c54:	1cc0000b 	ldhu	r19,0(r3)
 4044c58:	18c00104 	addi	r3,r3,4
 4044c5c:	d8c02e15 	stw	r3,184(sp)
 4044c60:	003caf06 	br	4043f20 <__flash_rwdata_start+0xffff31b8>
 4044c64:	d9002e17 	ldw	r4,184(sp)
 4044c68:	d9402a17 	ldw	r5,168(sp)
 4044c6c:	002d883a 	mov	r22,zero
 4044c70:	20800104 	addi	r2,r4,4
 4044c74:	24c00017 	ldw	r19,0(r4)
 4044c78:	283ebb0e 	bge	r5,zero,4044768 <__flash_rwdata_start+0xffff3a00>
 4044c7c:	003ef106 	br	4044844 <__flash_rwdata_start+0xffff3adc>
 4044c80:	9080040c 	andi	r2,r18,16
 4044c84:	1000921e 	bne	r2,zero,4044ed0 <___vfprintf_internal_r+0x1b74>
 4044c88:	9480100c 	andi	r18,r18,64
 4044c8c:	90013926 	beq	r18,zero,4045174 <___vfprintf_internal_r+0x1e18>
 4044c90:	d9402e17 	ldw	r5,184(sp)
 4044c94:	d8c02f17 	ldw	r3,188(sp)
 4044c98:	28800017 	ldw	r2,0(r5)
 4044c9c:	29400104 	addi	r5,r5,4
 4044ca0:	d9402e15 	stw	r5,184(sp)
 4044ca4:	10c0000d 	sth	r3,0(r2)
 4044ca8:	0039e406 	br	404343c <__flash_rwdata_start+0xffff26d4>
 4044cac:	9080100c 	andi	r2,r18,64
 4044cb0:	10008026 	beq	r2,zero,4044eb4 <___vfprintf_internal_r+0x1b58>
 4044cb4:	d8802e17 	ldw	r2,184(sp)
 4044cb8:	14c0000f 	ldh	r19,0(r2)
 4044cbc:	10800104 	addi	r2,r2,4
 4044cc0:	d8802e15 	stw	r2,184(sp)
 4044cc4:	982dd7fa 	srai	r22,r19,31
 4044cc8:	b005883a 	mov	r2,r22
 4044ccc:	003af706 	br	40438ac <__flash_rwdata_start+0xffff2b44>
 4044cd0:	9080100c 	andi	r2,r18,64
 4044cd4:	d8002785 	stb	zero,158(sp)
 4044cd8:	10008a1e 	bne	r2,zero,4044f04 <___vfprintf_internal_r+0x1ba8>
 4044cdc:	d9002e17 	ldw	r4,184(sp)
 4044ce0:	d9402a17 	ldw	r5,168(sp)
 4044ce4:	002d883a 	mov	r22,zero
 4044ce8:	20800104 	addi	r2,r4,4
 4044cec:	24c00017 	ldw	r19,0(r4)
 4044cf0:	283e4b0e 	bge	r5,zero,4044620 <__flash_rwdata_start+0xffff38b8>
 4044cf4:	9d86b03a 	or	r3,r19,r22
 4044cf8:	d8802e15 	stw	r2,184(sp)
 4044cfc:	183e4c1e 	bne	r3,zero,4044630 <__flash_rwdata_start+0xffff38c8>
 4044d00:	0039883a 	mov	fp,zero
 4044d04:	0005883a 	mov	r2,zero
 4044d08:	003d4006 	br	404420c <__flash_rwdata_start+0xffff34a4>
 4044d0c:	01400034 	movhi	r5,0
 4044d10:	29406f84 	addi	r5,r5,446
 4044d14:	d9402c15 	stw	r5,176(sp)
 4044d18:	d9402c17 	ldw	r5,176(sp)
 4044d1c:	1c47883a 	add	r3,r3,r17
 4044d20:	10800044 	addi	r2,r2,1
 4044d24:	41400015 	stw	r5,0(r8)
 4044d28:	44400115 	stw	r17,4(r8)
 4044d2c:	d8c02015 	stw	r3,128(sp)
 4044d30:	d8801f15 	stw	r2,124(sp)
 4044d34:	010001c4 	movi	r4,7
 4044d38:	20bec816 	blt	r4,r2,404485c <__flash_rwdata_start+0xffff3af4>
 4044d3c:	42000204 	addi	r8,r8,8
 4044d40:	003ecd06 	br	4044878 <__flash_rwdata_start+0xffff3b10>
 4044d44:	d9002a17 	ldw	r4,168(sp)
 4044d48:	d8002785 	stb	zero,158(sp)
 4044d4c:	203d2d16 	blt	r4,zero,4044204 <__flash_rwdata_start+0xffff349c>
 4044d50:	00bfdfc4 	movi	r2,-129
 4044d54:	90a4703a 	and	r18,r18,r2
 4044d58:	003a6106 	br	40436e0 <__flash_rwdata_start+0xffff2978>
 4044d5c:	01000034 	movhi	r4,0
 4044d60:	21006f84 	addi	r4,r4,446
 4044d64:	d9002c15 	stw	r4,176(sp)
 4044d68:	003bea06 	br	4043d14 <__flash_rwdata_start+0xffff2fac>
 4044d6c:	d9002d17 	ldw	r4,180(sp)
 4044d70:	d9801e04 	addi	r6,sp,120
 4044d74:	b80b883a 	mov	r5,r23
 4044d78:	404a04c0 	call	404a04c <__sprint_r>
 4044d7c:	103a7b1e 	bne	r2,zero,404376c <__flash_rwdata_start+0xffff2a04>
 4044d80:	d8c02017 	ldw	r3,128(sp)
 4044d84:	da000404 	addi	r8,sp,16
 4044d88:	003d4106 	br	4044290 <__flash_rwdata_start+0xffff3528>
 4044d8c:	d8801f17 	ldw	r2,124(sp)
 4044d90:	01400034 	movhi	r5,0
 4044d94:	01000044 	movi	r4,1
 4044d98:	18c00044 	addi	r3,r3,1
 4044d9c:	10800044 	addi	r2,r2,1
 4044da0:	29406f04 	addi	r5,r5,444
 4044da4:	41000115 	stw	r4,4(r8)
 4044da8:	41400015 	stw	r5,0(r8)
 4044dac:	d8c02015 	stw	r3,128(sp)
 4044db0:	d8801f15 	stw	r2,124(sp)
 4044db4:	010001c4 	movi	r4,7
 4044db8:	20805c16 	blt	r4,r2,4044f2c <___vfprintf_internal_r+0x1bd0>
 4044dbc:	42000204 	addi	r8,r8,8
 4044dc0:	8800041e 	bne	r17,zero,4044dd4 <___vfprintf_internal_r+0x1a78>
 4044dc4:	d8803317 	ldw	r2,204(sp)
 4044dc8:	1000021e 	bne	r2,zero,4044dd4 <___vfprintf_internal_r+0x1a78>
 4044dcc:	9080004c 	andi	r2,r18,1
 4044dd0:	103be726 	beq	r2,zero,4043d70 <__flash_rwdata_start+0xffff3008>
 4044dd4:	d9003717 	ldw	r4,220(sp)
 4044dd8:	d8801f17 	ldw	r2,124(sp)
 4044ddc:	d9403417 	ldw	r5,208(sp)
 4044de0:	20c7883a 	add	r3,r4,r3
 4044de4:	10800044 	addi	r2,r2,1
 4044de8:	41000115 	stw	r4,4(r8)
 4044dec:	41400015 	stw	r5,0(r8)
 4044df0:	d8c02015 	stw	r3,128(sp)
 4044df4:	d8801f15 	stw	r2,124(sp)
 4044df8:	010001c4 	movi	r4,7
 4044dfc:	20812116 	blt	r4,r2,4045284 <___vfprintf_internal_r+0x1f28>
 4044e00:	42000204 	addi	r8,r8,8
 4044e04:	0463c83a 	sub	r17,zero,r17
 4044e08:	0440730e 	bge	zero,r17,4044fd8 <___vfprintf_internal_r+0x1c7c>
 4044e0c:	05800404 	movi	r22,16
 4044e10:	b440860e 	bge	r22,r17,404502c <___vfprintf_internal_r+0x1cd0>
 4044e14:	01400034 	movhi	r5,0
 4044e18:	29406f84 	addi	r5,r5,446
 4044e1c:	d9402c15 	stw	r5,176(sp)
 4044e20:	070001c4 	movi	fp,7
 4044e24:	dcc02d17 	ldw	r19,180(sp)
 4044e28:	00000306 	br	4044e38 <___vfprintf_internal_r+0x1adc>
 4044e2c:	42000204 	addi	r8,r8,8
 4044e30:	8c7ffc04 	addi	r17,r17,-16
 4044e34:	b440800e 	bge	r22,r17,4045038 <___vfprintf_internal_r+0x1cdc>
 4044e38:	18c00404 	addi	r3,r3,16
 4044e3c:	10800044 	addi	r2,r2,1
 4044e40:	45000015 	stw	r20,0(r8)
 4044e44:	45800115 	stw	r22,4(r8)
 4044e48:	d8c02015 	stw	r3,128(sp)
 4044e4c:	d8801f15 	stw	r2,124(sp)
 4044e50:	e0bff60e 	bge	fp,r2,4044e2c <__flash_rwdata_start+0xffff40c4>
 4044e54:	d9801e04 	addi	r6,sp,120
 4044e58:	b80b883a 	mov	r5,r23
 4044e5c:	9809883a 	mov	r4,r19
 4044e60:	404a04c0 	call	404a04c <__sprint_r>
 4044e64:	103a411e 	bne	r2,zero,404376c <__flash_rwdata_start+0xffff2a04>
 4044e68:	d8c02017 	ldw	r3,128(sp)
 4044e6c:	d8801f17 	ldw	r2,124(sp)
 4044e70:	da000404 	addi	r8,sp,16
 4044e74:	003fee06 	br	4044e30 <__flash_rwdata_start+0xffff40c8>
 4044e78:	00bfffc4 	movi	r2,-1
 4044e7c:	003a3f06 	br	404377c <__flash_rwdata_start+0xffff2a14>
 4044e80:	008011c4 	movi	r2,71
 4044e84:	1440b816 	blt	r2,r17,4045168 <___vfprintf_internal_r+0x1e0c>
 4044e88:	04000034 	movhi	r16,0
 4044e8c:	84006104 	addi	r16,r16,388
 4044e90:	00c000c4 	movi	r3,3
 4044e94:	00bfdfc4 	movi	r2,-129
 4044e98:	d8c02915 	stw	r3,164(sp)
 4044e9c:	90a4703a 	and	r18,r18,r2
 4044ea0:	df002783 	ldbu	fp,158(sp)
 4044ea4:	d8c02b15 	stw	r3,172(sp)
 4044ea8:	d8002a15 	stw	zero,168(sp)
 4044eac:	d8003215 	stw	zero,200(sp)
 4044eb0:	003b0706 	br	4043ad0 <__flash_rwdata_start+0xffff2d68>
 4044eb4:	d8c02e17 	ldw	r3,184(sp)
 4044eb8:	1cc00017 	ldw	r19,0(r3)
 4044ebc:	18c00104 	addi	r3,r3,4
 4044ec0:	d8c02e15 	stw	r3,184(sp)
 4044ec4:	982dd7fa 	srai	r22,r19,31
 4044ec8:	b005883a 	mov	r2,r22
 4044ecc:	003a7706 	br	40438ac <__flash_rwdata_start+0xffff2b44>
 4044ed0:	d8c02e17 	ldw	r3,184(sp)
 4044ed4:	d9002f17 	ldw	r4,188(sp)
 4044ed8:	18800017 	ldw	r2,0(r3)
 4044edc:	18c00104 	addi	r3,r3,4
 4044ee0:	d8c02e15 	stw	r3,184(sp)
 4044ee4:	11000015 	stw	r4,0(r2)
 4044ee8:	00395406 	br	404343c <__flash_rwdata_start+0xffff26d4>
 4044eec:	d9002e17 	ldw	r4,184(sp)
 4044ef0:	002d883a 	mov	r22,zero
 4044ef4:	24c00017 	ldw	r19,0(r4)
 4044ef8:	21000104 	addi	r4,r4,4
 4044efc:	d9002e15 	stw	r4,184(sp)
 4044f00:	003c0706 	br	4043f20 <__flash_rwdata_start+0xffff31b8>
 4044f04:	d9402e17 	ldw	r5,184(sp)
 4044f08:	d8c02a17 	ldw	r3,168(sp)
 4044f0c:	002d883a 	mov	r22,zero
 4044f10:	28800104 	addi	r2,r5,4
 4044f14:	2cc0000b 	ldhu	r19,0(r5)
 4044f18:	183dc10e 	bge	r3,zero,4044620 <__flash_rwdata_start+0xffff38b8>
 4044f1c:	003f7506 	br	4044cf4 <__flash_rwdata_start+0xffff3f8c>
 4044f20:	04000034 	movhi	r16,0
 4044f24:	84005f04 	addi	r16,r16,380
 4044f28:	003aa706 	br	40439c8 <__flash_rwdata_start+0xffff2c60>
 4044f2c:	d9002d17 	ldw	r4,180(sp)
 4044f30:	d9801e04 	addi	r6,sp,120
 4044f34:	b80b883a 	mov	r5,r23
 4044f38:	404a04c0 	call	404a04c <__sprint_r>
 4044f3c:	103a0b1e 	bne	r2,zero,404376c <__flash_rwdata_start+0xffff2a04>
 4044f40:	dc402617 	ldw	r17,152(sp)
 4044f44:	d8c02017 	ldw	r3,128(sp)
 4044f48:	da000404 	addi	r8,sp,16
 4044f4c:	003f9c06 	br	4044dc0 <__flash_rwdata_start+0xffff4058>
 4044f50:	ac400043 	ldbu	r17,1(r21)
 4044f54:	84000814 	ori	r16,r16,32
 4044f58:	ad400044 	addi	r21,r21,1
 4044f5c:	8c403fcc 	andi	r17,r17,255
 4044f60:	8c40201c 	xori	r17,r17,128
 4044f64:	8c7fe004 	addi	r17,r17,-128
 4044f68:	00395e06 	br	40434e4 <__flash_rwdata_start+0xffff277c>
 4044f6c:	d8c02e15 	stw	r3,184(sp)
 4044f70:	0039883a 	mov	fp,zero
 4044f74:	003e3506 	br	404484c <__flash_rwdata_start+0xffff3ae4>
 4044f78:	d9002d17 	ldw	r4,180(sp)
 4044f7c:	d9801e04 	addi	r6,sp,120
 4044f80:	b80b883a 	mov	r5,r23
 4044f84:	404a04c0 	call	404a04c <__sprint_r>
 4044f88:	1039f81e 	bne	r2,zero,404376c <__flash_rwdata_start+0xffff2a04>
 4044f8c:	d8c02017 	ldw	r3,128(sp)
 4044f90:	da000404 	addi	r8,sp,16
 4044f94:	003cd006 	br	40442d8 <__flash_rwdata_start+0xffff3570>
 4044f98:	8009883a 	mov	r4,r16
 4044f9c:	df003d15 	stw	fp,244(sp)
 4044fa0:	4049eb80 	call	4049eb8 <strlen>
 4044fa4:	d8802b15 	stw	r2,172(sp)
 4044fa8:	da003d17 	ldw	r8,244(sp)
 4044fac:	103c200e 	bge	r2,zero,4044030 <__flash_rwdata_start+0xffff32c8>
 4044fb0:	0005883a 	mov	r2,zero
 4044fb4:	003c1e06 	br	4044030 <__flash_rwdata_start+0xffff32c8>
 4044fb8:	d9002d17 	ldw	r4,180(sp)
 4044fbc:	d9801e04 	addi	r6,sp,120
 4044fc0:	b80b883a 	mov	r5,r23
 4044fc4:	404a04c0 	call	404a04c <__sprint_r>
 4044fc8:	1039e81e 	bne	r2,zero,404376c <__flash_rwdata_start+0xffff2a04>
 4044fcc:	d8c02017 	ldw	r3,128(sp)
 4044fd0:	d8801f17 	ldw	r2,124(sp)
 4044fd4:	da000404 	addi	r8,sp,16
 4044fd8:	d9403317 	ldw	r5,204(sp)
 4044fdc:	10800044 	addi	r2,r2,1
 4044fe0:	44000015 	stw	r16,0(r8)
 4044fe4:	28c7883a 	add	r3,r5,r3
 4044fe8:	003b5b06 	br	4043d58 <__flash_rwdata_start+0xffff2ff0>
 4044fec:	01000034 	movhi	r4,0
 4044ff0:	21007384 	addi	r4,r4,462
 4044ff4:	d9003515 	stw	r4,212(sp)
 4044ff8:	003af206 	br	4043bc4 <__flash_rwdata_start+0xffff2e5c>
 4044ffc:	013fffc4 	movi	r4,-1
 4045000:	003a0806 	br	4043824 <__flash_rwdata_start+0xffff2abc>
 4045004:	0023883a 	mov	r17,zero
 4045008:	003d9d06 	br	4044680 <__flash_rwdata_start+0xffff3918>
 404500c:	d9002d17 	ldw	r4,180(sp)
 4045010:	d9801e04 	addi	r6,sp,120
 4045014:	b80b883a 	mov	r5,r23
 4045018:	404a04c0 	call	404a04c <__sprint_r>
 404501c:	1039d31e 	bne	r2,zero,404376c <__flash_rwdata_start+0xffff2a04>
 4045020:	d8c02017 	ldw	r3,128(sp)
 4045024:	da000404 	addi	r8,sp,16
 4045028:	003d9406 	br	404467c <__flash_rwdata_start+0xffff3914>
 404502c:	01000034 	movhi	r4,0
 4045030:	21006f84 	addi	r4,r4,446
 4045034:	d9002c15 	stw	r4,176(sp)
 4045038:	d9002c17 	ldw	r4,176(sp)
 404503c:	1c47883a 	add	r3,r3,r17
 4045040:	10800044 	addi	r2,r2,1
 4045044:	41000015 	stw	r4,0(r8)
 4045048:	44400115 	stw	r17,4(r8)
 404504c:	d8c02015 	stw	r3,128(sp)
 4045050:	d8801f15 	stw	r2,124(sp)
 4045054:	010001c4 	movi	r4,7
 4045058:	20bfd716 	blt	r4,r2,4044fb8 <__flash_rwdata_start+0xffff4250>
 404505c:	42000204 	addi	r8,r8,8
 4045060:	003fdd06 	br	4044fd8 <__flash_rwdata_start+0xffff4270>
 4045064:	d9002d17 	ldw	r4,180(sp)
 4045068:	d9801e04 	addi	r6,sp,120
 404506c:	b80b883a 	mov	r5,r23
 4045070:	404a04c0 	call	404a04c <__sprint_r>
 4045074:	1039bd1e 	bne	r2,zero,404376c <__flash_rwdata_start+0xffff2a04>
 4045078:	d8802617 	ldw	r2,152(sp)
 404507c:	d8c02017 	ldw	r3,128(sp)
 4045080:	da000404 	addi	r8,sp,16
 4045084:	003e1006 	br	40448c8 <__flash_rwdata_start+0xffff3b60>
 4045088:	00800044 	movi	r2,1
 404508c:	10803fcc 	andi	r2,r2,255
 4045090:	00c00044 	movi	r3,1
 4045094:	10fa0d26 	beq	r2,r3,40438cc <__flash_rwdata_start+0xffff2b64>
 4045098:	00c00084 	movi	r3,2
 404509c:	10fbaf26 	beq	r2,r3,4043f5c <__flash_rwdata_start+0xffff31f4>
 40450a0:	003a6d06 	br	4043a58 <__flash_rwdata_start+0xffff2cf0>
 40450a4:	01000034 	movhi	r4,0
 40450a8:	21007384 	addi	r4,r4,462
 40450ac:	d9003515 	stw	r4,212(sp)
 40450b0:	003b5406 	br	4043e04 <__flash_rwdata_start+0xffff309c>
 40450b4:	d8802a17 	ldw	r2,168(sp)
 40450b8:	00c00184 	movi	r3,6
 40450bc:	1880012e 	bgeu	r3,r2,40450c4 <___vfprintf_internal_r+0x1d68>
 40450c0:	1805883a 	mov	r2,r3
 40450c4:	d8802b15 	stw	r2,172(sp)
 40450c8:	1000ef16 	blt	r2,zero,4045488 <___vfprintf_internal_r+0x212c>
 40450cc:	04000034 	movhi	r16,0
 40450d0:	d8802915 	stw	r2,164(sp)
 40450d4:	dcc02e15 	stw	r19,184(sp)
 40450d8:	d8002a15 	stw	zero,168(sp)
 40450dc:	d8003215 	stw	zero,200(sp)
 40450e0:	84006d04 	addi	r16,r16,436
 40450e4:	0039883a 	mov	fp,zero
 40450e8:	003a8006 	br	4043aec <__flash_rwdata_start+0xffff2d84>
 40450ec:	0021883a 	mov	r16,zero
 40450f0:	003e0706 	br	4044910 <__flash_rwdata_start+0xffff3ba8>
 40450f4:	d9002d17 	ldw	r4,180(sp)
 40450f8:	d9801e04 	addi	r6,sp,120
 40450fc:	b80b883a 	mov	r5,r23
 4045100:	404a04c0 	call	404a04c <__sprint_r>
 4045104:	1039991e 	bne	r2,zero,404376c <__flash_rwdata_start+0xffff2a04>
 4045108:	d8802617 	ldw	r2,152(sp)
 404510c:	d9403317 	ldw	r5,204(sp)
 4045110:	d8c02017 	ldw	r3,128(sp)
 4045114:	da000404 	addi	r8,sp,16
 4045118:	2885c83a 	sub	r2,r5,r2
 404511c:	003dfb06 	br	404490c <__flash_rwdata_start+0xffff3ba4>
 4045120:	9080004c 	andi	r2,r18,1
 4045124:	103e8f1e 	bne	r2,zero,4044b64 <__flash_rwdata_start+0xffff3dfc>
 4045128:	d8802117 	ldw	r2,132(sp)
 404512c:	003e9e06 	br	4044ba8 <__flash_rwdata_start+0xffff3e40>
 4045130:	1025883a 	mov	r18,r2
 4045134:	0039883a 	mov	fp,zero
 4045138:	00800084 	movi	r2,2
 404513c:	003fd306 	br	404508c <__flash_rwdata_start+0xffff4324>
 4045140:	07000b44 	movi	fp,45
 4045144:	df002785 	stb	fp,158(sp)
 4045148:	003a1b06 	br	40439b8 <__flash_rwdata_start+0xffff2c50>
 404514c:	00c00b44 	movi	r3,45
 4045150:	d8c02785 	stb	r3,158(sp)
 4045154:	d8802915 	stw	r2,164(sp)
 4045158:	dc802c17 	ldw	r18,176(sp)
 404515c:	d8002a15 	stw	zero,168(sp)
 4045160:	07000b44 	movi	fp,45
 4045164:	003a5e06 	br	4043ae0 <__flash_rwdata_start+0xffff2d78>
 4045168:	04000034 	movhi	r16,0
 404516c:	84006204 	addi	r16,r16,392
 4045170:	003f4706 	br	4044e90 <__flash_rwdata_start+0xffff4128>
 4045174:	d9002e17 	ldw	r4,184(sp)
 4045178:	d9402f17 	ldw	r5,188(sp)
 404517c:	20800017 	ldw	r2,0(r4)
 4045180:	21000104 	addi	r4,r4,4
 4045184:	d9002e15 	stw	r4,184(sp)
 4045188:	11400015 	stw	r5,0(r2)
 404518c:	0038ab06 	br	404343c <__flash_rwdata_start+0xffff26d4>
 4045190:	dd802617 	ldw	r22,152(sp)
 4045194:	00bfff44 	movi	r2,-3
 4045198:	b0801c16 	blt	r22,r2,404520c <___vfprintf_internal_r+0x1eb0>
 404519c:	d9402a17 	ldw	r5,168(sp)
 40451a0:	2d801a16 	blt	r5,r22,404520c <___vfprintf_internal_r+0x1eb0>
 40451a4:	dd803215 	stw	r22,200(sp)
 40451a8:	003e8906 	br	4044bd0 <__flash_rwdata_start+0xffff3e68>
 40451ac:	01000034 	movhi	r4,0
 40451b0:	21006f84 	addi	r4,r4,446
 40451b4:	d9002c15 	stw	r4,176(sp)
 40451b8:	003c9106 	br	4044400 <__flash_rwdata_start+0xffff3698>
 40451bc:	e005883a 	mov	r2,fp
 40451c0:	003e7906 	br	4044ba8 <__flash_rwdata_start+0xffff3e40>
 40451c4:	d9002a17 	ldw	r4,168(sp)
 40451c8:	df002783 	ldbu	fp,158(sp)
 40451cc:	dcc02e15 	stw	r19,184(sp)
 40451d0:	d9002915 	stw	r4,164(sp)
 40451d4:	d9002b15 	stw	r4,172(sp)
 40451d8:	d8002a15 	stw	zero,168(sp)
 40451dc:	d8003215 	stw	zero,200(sp)
 40451e0:	003a3b06 	br	4043ad0 <__flash_rwdata_start+0xffff2d68>
 40451e4:	9080004c 	andi	r2,r18,1
 40451e8:	0039883a 	mov	fp,zero
 40451ec:	10000426 	beq	r2,zero,4045200 <___vfprintf_internal_r+0x1ea4>
 40451f0:	00800c04 	movi	r2,48
 40451f4:	dc001dc4 	addi	r16,sp,119
 40451f8:	d8801dc5 	stb	r2,119(sp)
 40451fc:	003b6406 	br	4043f90 <__flash_rwdata_start+0xffff3228>
 4045200:	d8002b15 	stw	zero,172(sp)
 4045204:	dc001e04 	addi	r16,sp,120
 4045208:	003a2b06 	br	4043ab8 <__flash_rwdata_start+0xffff2d50>
 404520c:	8c7fff84 	addi	r17,r17,-2
 4045210:	b5bfffc4 	addi	r22,r22,-1
 4045214:	dd802615 	stw	r22,152(sp)
 4045218:	dc4022c5 	stb	r17,139(sp)
 404521c:	b000bf16 	blt	r22,zero,404551c <___vfprintf_internal_r+0x21c0>
 4045220:	00800ac4 	movi	r2,43
 4045224:	d8802305 	stb	r2,140(sp)
 4045228:	00800244 	movi	r2,9
 404522c:	15807016 	blt	r2,r22,40453f0 <___vfprintf_internal_r+0x2094>
 4045230:	00800c04 	movi	r2,48
 4045234:	b5800c04 	addi	r22,r22,48
 4045238:	d8802345 	stb	r2,141(sp)
 404523c:	dd802385 	stb	r22,142(sp)
 4045240:	d88023c4 	addi	r2,sp,143
 4045244:	df0022c4 	addi	fp,sp,139
 4045248:	d8c03317 	ldw	r3,204(sp)
 404524c:	1739c83a 	sub	fp,r2,fp
 4045250:	d9003317 	ldw	r4,204(sp)
 4045254:	e0c7883a 	add	r3,fp,r3
 4045258:	df003a15 	stw	fp,232(sp)
 404525c:	d8c02b15 	stw	r3,172(sp)
 4045260:	00800044 	movi	r2,1
 4045264:	1100b30e 	bge	r2,r4,4045534 <___vfprintf_internal_r+0x21d8>
 4045268:	d8c02b17 	ldw	r3,172(sp)
 404526c:	18c00044 	addi	r3,r3,1
 4045270:	d8c02b15 	stw	r3,172(sp)
 4045274:	1805883a 	mov	r2,r3
 4045278:	1800ac16 	blt	r3,zero,404552c <___vfprintf_internal_r+0x21d0>
 404527c:	d8003215 	stw	zero,200(sp)
 4045280:	003e5d06 	br	4044bf8 <__flash_rwdata_start+0xffff3e90>
 4045284:	d9002d17 	ldw	r4,180(sp)
 4045288:	d9801e04 	addi	r6,sp,120
 404528c:	b80b883a 	mov	r5,r23
 4045290:	404a04c0 	call	404a04c <__sprint_r>
 4045294:	1039351e 	bne	r2,zero,404376c <__flash_rwdata_start+0xffff2a04>
 4045298:	dc402617 	ldw	r17,152(sp)
 404529c:	d8c02017 	ldw	r3,128(sp)
 40452a0:	d8801f17 	ldw	r2,124(sp)
 40452a4:	da000404 	addi	r8,sp,16
 40452a8:	003ed606 	br	4044e04 <__flash_rwdata_start+0xffff409c>
 40452ac:	182b883a 	mov	r21,r3
 40452b0:	d8002a15 	stw	zero,168(sp)
 40452b4:	00388c06 	br	40434e8 <__flash_rwdata_start+0xffff2780>
 40452b8:	d8802a17 	ldw	r2,168(sp)
 40452bc:	103e071e 	bne	r2,zero,4044adc <__flash_rwdata_start+0xffff3d74>
 40452c0:	dc002a15 	stw	r16,168(sp)
 40452c4:	003e0506 	br	4044adc <__flash_rwdata_start+0xffff3d74>
 40452c8:	d9002a17 	ldw	r4,168(sp)
 40452cc:	20c00044 	addi	r3,r4,1
 40452d0:	003e0f06 	br	4044b10 <__flash_rwdata_start+0xffff3da8>
 40452d4:	01400184 	movi	r5,6
 40452d8:	d9402a15 	stw	r5,168(sp)
 40452dc:	003dff06 	br	4044adc <__flash_rwdata_start+0xffff3d74>
 40452e0:	d8802104 	addi	r2,sp,132
 40452e4:	d8800315 	stw	r2,12(sp)
 40452e8:	d8802504 	addi	r2,sp,148
 40452ec:	d8800215 	stw	r2,8(sp)
 40452f0:	d8802604 	addi	r2,sp,152
 40452f4:	d8800115 	stw	r2,4(sp)
 40452f8:	d8802a17 	ldw	r2,168(sp)
 40452fc:	d9403617 	ldw	r5,216(sp)
 4045300:	d9002d17 	ldw	r4,180(sp)
 4045304:	d8800015 	stw	r2,0(sp)
 4045308:	01c000c4 	movi	r7,3
 404530c:	980d883a 	mov	r6,r19
 4045310:	da003d15 	stw	r8,244(sp)
 4045314:	4045a8c0 	call	4045a8c <_dtoa_r>
 4045318:	d8c02a17 	ldw	r3,168(sp)
 404531c:	da003d17 	ldw	r8,244(sp)
 4045320:	1021883a 	mov	r16,r2
 4045324:	10f9883a 	add	fp,r2,r3
 4045328:	81000007 	ldb	r4,0(r16)
 404532c:	00800c04 	movi	r2,48
 4045330:	20805e26 	beq	r4,r2,40454ac <___vfprintf_internal_r+0x2150>
 4045334:	d8c02617 	ldw	r3,152(sp)
 4045338:	e0f9883a 	add	fp,fp,r3
 404533c:	003e0a06 	br	4044b68 <__flash_rwdata_start+0xffff3e00>
 4045340:	00c00b44 	movi	r3,45
 4045344:	24e0003c 	xorhi	r19,r4,32768
 4045348:	d8c02905 	stb	r3,164(sp)
 404534c:	003de906 	br	4044af4 <__flash_rwdata_start+0xffff3d8c>
 4045350:	d8c03217 	ldw	r3,200(sp)
 4045354:	00c07a0e 	bge	zero,r3,4045540 <___vfprintf_internal_r+0x21e4>
 4045358:	00800044 	movi	r2,1
 404535c:	d9003317 	ldw	r4,204(sp)
 4045360:	1105883a 	add	r2,r2,r4
 4045364:	d8802b15 	stw	r2,172(sp)
 4045368:	10004e16 	blt	r2,zero,40454a4 <___vfprintf_internal_r+0x2148>
 404536c:	044019c4 	movi	r17,103
 4045370:	003e2106 	br	4044bf8 <__flash_rwdata_start+0xffff3e90>
 4045374:	d9002a17 	ldw	r4,168(sp)
 4045378:	d8802104 	addi	r2,sp,132
 404537c:	d8800315 	stw	r2,12(sp)
 4045380:	d9000015 	stw	r4,0(sp)
 4045384:	d8802504 	addi	r2,sp,148
 4045388:	d9403617 	ldw	r5,216(sp)
 404538c:	d9002d17 	ldw	r4,180(sp)
 4045390:	d8800215 	stw	r2,8(sp)
 4045394:	d8802604 	addi	r2,sp,152
 4045398:	d8800115 	stw	r2,4(sp)
 404539c:	01c000c4 	movi	r7,3
 40453a0:	980d883a 	mov	r6,r19
 40453a4:	da003d15 	stw	r8,244(sp)
 40453a8:	4045a8c0 	call	4045a8c <_dtoa_r>
 40453ac:	d8c02a17 	ldw	r3,168(sp)
 40453b0:	da003d17 	ldw	r8,244(sp)
 40453b4:	1021883a 	mov	r16,r2
 40453b8:	00801184 	movi	r2,70
 40453bc:	80f9883a 	add	fp,r16,r3
 40453c0:	88bfd926 	beq	r17,r2,4045328 <__flash_rwdata_start+0xffff45c0>
 40453c4:	003de806 	br	4044b68 <__flash_rwdata_start+0xffff3e00>
 40453c8:	d9002a17 	ldw	r4,168(sp)
 40453cc:	00c04d0e 	bge	zero,r3,4045504 <___vfprintf_internal_r+0x21a8>
 40453d0:	2000441e 	bne	r4,zero,40454e4 <___vfprintf_internal_r+0x2188>
 40453d4:	9480004c 	andi	r18,r18,1
 40453d8:	9000421e 	bne	r18,zero,40454e4 <___vfprintf_internal_r+0x2188>
 40453dc:	1805883a 	mov	r2,r3
 40453e0:	18006f16 	blt	r3,zero,40455a0 <___vfprintf_internal_r+0x2244>
 40453e4:	d8c03217 	ldw	r3,200(sp)
 40453e8:	d8c02b15 	stw	r3,172(sp)
 40453ec:	003e0206 	br	4044bf8 <__flash_rwdata_start+0xffff3e90>
 40453f0:	df0022c4 	addi	fp,sp,139
 40453f4:	dc002a15 	stw	r16,168(sp)
 40453f8:	4027883a 	mov	r19,r8
 40453fc:	e021883a 	mov	r16,fp
 4045400:	b009883a 	mov	r4,r22
 4045404:	01400284 	movi	r5,10
 4045408:	4040b780 	call	4040b78 <__modsi3>
 404540c:	10800c04 	addi	r2,r2,48
 4045410:	843fffc4 	addi	r16,r16,-1
 4045414:	b009883a 	mov	r4,r22
 4045418:	01400284 	movi	r5,10
 404541c:	80800005 	stb	r2,0(r16)
 4045420:	4040af40 	call	4040af4 <__divsi3>
 4045424:	102d883a 	mov	r22,r2
 4045428:	00800244 	movi	r2,9
 404542c:	15bff416 	blt	r2,r22,4045400 <__flash_rwdata_start+0xffff4698>
 4045430:	9811883a 	mov	r8,r19
 4045434:	b0800c04 	addi	r2,r22,48
 4045438:	8027883a 	mov	r19,r16
 404543c:	997fffc4 	addi	r5,r19,-1
 4045440:	98bfffc5 	stb	r2,-1(r19)
 4045444:	dc002a17 	ldw	r16,168(sp)
 4045448:	2f006d2e 	bgeu	r5,fp,4045600 <___vfprintf_internal_r+0x22a4>
 404544c:	d9c02384 	addi	r7,sp,142
 4045450:	3ccfc83a 	sub	r7,r7,r19
 4045454:	d9002344 	addi	r4,sp,141
 4045458:	e1cf883a 	add	r7,fp,r7
 404545c:	00000106 	br	4045464 <___vfprintf_internal_r+0x2108>
 4045460:	28800003 	ldbu	r2,0(r5)
 4045464:	20800005 	stb	r2,0(r4)
 4045468:	21000044 	addi	r4,r4,1
 404546c:	29400044 	addi	r5,r5,1
 4045470:	393ffb1e 	bne	r7,r4,4045460 <__flash_rwdata_start+0xffff46f8>
 4045474:	d8802304 	addi	r2,sp,140
 4045478:	14c5c83a 	sub	r2,r2,r19
 404547c:	d8c02344 	addi	r3,sp,141
 4045480:	1885883a 	add	r2,r3,r2
 4045484:	003f7006 	br	4045248 <__flash_rwdata_start+0xffff44e0>
 4045488:	0005883a 	mov	r2,zero
 404548c:	003f0f06 	br	40450cc <__flash_rwdata_start+0xffff4364>
 4045490:	d8c03217 	ldw	r3,200(sp)
 4045494:	18c00044 	addi	r3,r3,1
 4045498:	d8c02b15 	stw	r3,172(sp)
 404549c:	1805883a 	mov	r2,r3
 40454a0:	183fb20e 	bge	r3,zero,404536c <__flash_rwdata_start+0xffff4604>
 40454a4:	0005883a 	mov	r2,zero
 40454a8:	003fb006 	br	404536c <__flash_rwdata_start+0xffff4604>
 40454ac:	d9003617 	ldw	r4,216(sp)
 40454b0:	000d883a 	mov	r6,zero
 40454b4:	000f883a 	mov	r7,zero
 40454b8:	980b883a 	mov	r5,r19
